(dp0
VaN4ZpLty-AYcvlTE7AxRUQ
p1
(dp2
S'node_id'
p3
I23
ssVcy3pOp2cuZbFCjfGnhnfmw
p4
(dp5
g3
I33
ssVhs5lmDiU7xKO23tdB4saEw
p6
(dp7
g3
I10
ssV5AwX3A1D-PJkkrWuRpmpCA
p8
(dp9
g3
I4
ssVbq1fa6fmeFPXa7qe2pU1Hg
p10
(dp11
g3
I12
ssV4hIgSKVFrstym0E2SEzL-g
p12
(dp13
g3
I32
ssVgGGMxtwNWxR_c8VARfbWDg
p14
(dp15
g3
I42
ssVX73FFjzveWTOSJR2RfTh9A
p16
(dp17
g3
I48
ssVpLCTr-amfxzp3JXli3y9Kg
p18
(dp19
g3
I17
ssVjf71E4whCnqvK0EymKD_CQ
p20
(dp21
g3
I9
ssVEUgv13qRQ0OhmG40x_fcFg
p22
(dp23
g3
I31
ssV2EeuYhLuzvvrJ9v2pVrTjQ
p24
(dp25
g3
I3
ssVEAKOI5JjZU7rZU2FtoSoEA
p26
(dp27
g3
I5
ssVgYV6bmTSgbZMGkvXHVCowg
p28
(dp29
g3
I1
ssVf01B5tRtqf3k6ak1pPSAWw
p30
(dp31
g3
I44
ssV_mDN0Q9ZaLfG40G7j7WCIw
p32
(dp33
g3
I45
ssVMhtL6Nr2GRKVkgqXm380Kg
p34
(dp35
g3
I49
ssV9QXjwdxQXhrXuGu842gojQ
p36
(dp37
g3
I6
ssVXgAf6bN-XzTTUQIw1k6_oA
p38
(dp39
g3
I25
ssV_fYurOhUh42yskTGNsBhkQ
p40
(dp41
g3
I41
ssV_qDCRA8PTafuoXc0VWyBlw
p42
(dp43
g3
I14
ssVhNlHSw7g_ujCaVO3zBOr4g
p44
(dp45
g3
I34
ssV_G_QjcByAzbxgClDiq6OEQ
p46
(dp47
g3
I22
ssVpZZoNEg9DhlQCpbwUm9NQw
p48
(dp49
g3
I43
ssV39Dq_Wx0sbudqrJXT-a73Q
p50
(dp51
g3
I40
ssVliIQCDzDTnvXc7X8twBIjg
p52
(dp53
g3
I8
ssVmuNkVkah1fMB616plw1KUw
p54
(dp55
g3
I20
ssV3I0fKRTtr0bmjKP5fVzwYg
p56
(dp57
g3
I11
ssVZubK3U5PlTWy4VIQG_Wpzg
p58
(dp59
g3
I28
ssVd3rsz09litqwVDGC6egItg
p60
(dp61
g3
I27
ssVKntKztuTHOnSh4Oq4C1NcQ
p62
(dp63
g3
I47
ssVyneluytnFRAf-s4i3JDbIA
p64
(dp65
g3
I18
ssVMtgH4ksVOPSF2pAq3Fw2gw
p66
(dp67
g3
I37
ssV1G7v15k03lh2Y6f2O1YKsg
p68
(dp69
g3
I46
ssV3gzof6rbqeKDc-_9PWlCpA
p70
(dp71
g3
I26
ssVklCitk19nqG7zK6R382lRg
p72
(dp73
g3
I21
ssVxv87nN3KfS3KsR44CPiAUg
p74
(dp75
g3
I16
ssV4duCDxDMiRJJbc2CmnziAg
p76
(dp77
g3
I2
ssV_lvBXBxpW0AFO3TQ4_yPzA
p78
(dp79
g3
I39
ssVtiLDO-1uzUJBlF37wA47Hw
p80
(dp81
g3
I13
ssVGDRSl9fQJ2khJnHEZg2CZQ
p82
(dp83
g3
I36
ssVd4z_5arNJVUud2xC-vipyw
p84
(dp85
g3
I38
ssVvGT4H3756z6f54CydNXwFA
p86
(dp87
g3
I30
ssVjOQQJbs7EO4X0vEIS7FCcw
p88
(dp89
g3
I15
ssVHzLh-2WyMjf6TYATFwg6NA
p90
(dp91
g3
I0
ssVgI9xDj8hiKdRN6qDy6O_ug
p92
(dp93
g3
I29
ssVZ1kxY2ylzi2X8uDl8OIHAQ
p94
(dp95
g3
I35
ssVQZWo-viRnL9EmsIAN6vHtg
p96
(dp97
g3
I7
ssVg1hPSh0rTKcBpICKMOpt-g
p98
(dp99
g3
I19
ssVGO2ilgG7U0zrYv8YIGGUIQ
p100
(dp101
g3
I24
ss.