(dp0
S'uCIdDkseUCJxAurX3mdHcQ'
p1
(dp2
S'node_id'
p3
I336
ssS'LS5un38syAbldxbm8C-h3g'
p4
(dp5
g3
I827
ssS'NCNOWg4rVQ5tSOocNvWZxw'
p6
(dp7
g3
I750
ssS'Af1y_gbYglcpjNdHWHq2xg'
p8
(dp9
g3
I929
ssS'TQ4vRT9ETlxaL2Bvoj0fMg'
p10
(dp11
g3
I284
ssS'oj9YvmMETyyHXzYAGgzEPA'
p12
(dp13
g3
I444
ssS'UIX8SAds68IhDVq1BAxE2w'
p14
(dp15
g3
I600
ssS'sv-zCjEl7X-NV6MUPI6r3Q'
p16
(dp17
g3
I372
ssS'-glVOsQvlsQ3fuCdO0MRPQ'
p18
(dp19
g3
I777
ssS'h98Oh6jQiSUneixDjpfLOg'
p20
(dp21
g3
I986
ssS'QKPLkz_VC6GVwnC4B3_Y2w'
p22
(dp23
g3
I680
ssS'xUePW5nIsaCre4jrGMeUzg'
p24
(dp25
g3
I716
ssS's8B0HwjFfMm23POEq-7FbQ'
p26
(dp27
g3
I305
ssS'FdJ7cwdPcIrQ_mix48xo7g'
p28
(dp29
g3
I780
ssS'byRFqFK02cEfNeJ6kMv4bA'
p30
(dp31
g3
I177
ssS'EGoUsEPVKflOAFduuQPmUQ'
p32
(dp33
g3
I543
ssS'C5hDZleIfHtcXS9p4ZYBuA'
p34
(dp35
g3
I724
ssS'q3nb0eKxfUd3AcQqXMpZOw'
p36
(dp37
g3
I278
ssS'1D5q-rkfXgpx5_nAOF9LBw'
p38
(dp39
g3
I537
ssS'40d7fEqD1ddLGpkMDcP5jA'
p40
(dp41
g3
I117
ssS'92fY2LVLtkeCwZRyEn-7CA'
p42
(dp43
g3
I939
ssS'BV1ir8D2fpek-yYs8MpNGQ'
p44
(dp45
g3
I8
ssS'T-f_cOhjSNmlWtSpLHIhFg'
p46
(dp47
g3
I202
ssS'kU5SCh6wSY68tby_fGZLrg'
p48
(dp49
g3
I447
ssS'Tnk_DCoX5i2NcsuYWBJImQ'
p50
(dp51
g3
I369
ssS'XkDiyDjqWNmk_5dwIiRQ8g'
p52
(dp53
g3
I190
ssS'o2pa8F9789P2VFz-wS1EJg'
p54
(dp55
g3
I268
ssS'-sUuJZO5LuyMa44yO0IbHA'
p56
(dp57
g3
I747
ssS'hdBTZ8EFzDhnI0xBFWid1w'
p58
(dp59
g3
I996
ssS'clERuF_8Jck0Y1KNd0aTDA'
p60
(dp61
g3
I178
ssS'Tkk7Mn6g4aLhhVP0vG0MRA'
p62
(dp63
g3
I410
ssS'v7L_5bg8w_sgD4LYMfkqmg'
p64
(dp65
g3
I796
ssS'O8tNWUq6vPmvq2YTVD8hlA'
p66
(dp67
g3
I919
ssS'cGmhTQq-Tm6ND1B2bFUcag'
p68
(dp69
g3
I334
ssS'PUL8BV55Mq0yVe2yWVLLww'
p70
(dp71
g3
I687
ssS'ThZi80o_YUSAbNuezMjPjw'
p72
(dp73
g3
I725
ssS'ym52NzxOjyl-P1CB7d7SUw'
p74
(dp75
g3
I736
ssS'I065PYFuIaesC-UUM-RnSQ'
p76
(dp77
g3
I20
ssS'p7bq64eZ2oR4bO5sHD6hcA'
p78
(dp79
g3
I969
ssS'Bz2igotNP00BeYeo32KaSw'
p80
(dp81
g3
I842
ssS'pyeOGd2nK08qhQ09RYNZzA'
p82
(dp83
g3
I280
ssS'ygv557H4_4VEqlDdPFr9Sw'
p84
(dp85
g3
I414
ssS'Os0wrbKLtFk65gsDObMBuw'
p86
(dp87
g3
I91
ssS'N-5Cdyy54SFORdGwH8tGKw'
p88
(dp89
g3
I993
ssS'Hqgx3IdJAAaoQjvrUnbNvw'
p90
(dp91
g3
I948
ssS'Xjp1Mo5341--6USSS03cfg'
p92
(dp93
g3
I366
ssS'3dUpHZLkNj-8XiWRGyF_Dw'
p94
(dp95
g3
I701
ssS'9EEQzDyzJgmjNNWLi-m0ag'
p96
(dp97
g3
I612
ssS'bo9703_zTS6Y-bsZTmXlvg'
p98
(dp99
g3
I517
ssS'O5KjpXYjAFmdtSHa-RZvYQ'
p100
(dp101
g3
I867
ssS'VBjTNLHlpaH_iTeloHLkmQ'
p102
(dp103
g3
I419
ssS'dEqyN5C0z-9xnwnFw9J_OQ'
p104
(dp105
g3
I928
ssS'H02SEpQuMSk8U3PLJ3JV6g'
p106
(dp107
g3
I798
ssS'0B2i-RO_IfMVhb3biIRhUw'
p108
(dp109
g3
I101
ssS'K4FAia2Iy5MVnmBLfS-mCg'
p110
(dp111
g3
I947
ssS'Sm6DOngHWJJiH_GaGiYsuA'
p112
(dp113
g3
I118
ssS'PZbTV7oLCrPqRvzDOmLykg'
p114
(dp115
g3
I692
ssS'8WbBr6MRkW8dE9KUYA1yeA'
p116
(dp117
g3
I744
ssS'Yf4HQbSrIYt1hsfr-gGimQ'
p118
(dp119
g3
I760
ssS'QrDVE9ivBqn7IS5OpXQC-A'
p120
(dp121
g3
I170
ssS'LjXYhg2Hp8Z6st31tXw0lw'
p122
(dp123
g3
I614
ssS't04xy0Yz4o_40mn7B40feA'
p124
(dp125
g3
I926
ssS'SGYZkhXJxltr7qPNwvRhkA'
p126
(dp127
g3
I322
ssS'gShu18YTnbHy8_lD4x0PZw'
p128
(dp129
g3
I711
ssS'mAER6xHBCceoqSFwk5z1Sg'
p130
(dp131
g3
I218
ssS'Bmzq_nkjYqp8aWn12RJdhA'
p132
(dp133
g3
I295
ssS'MQ96E0cw4L4e9ixXbq15Pg'
p134
(dp135
g3
I68
ssS'5xSIdC1tdsJPtJnWj3ofRw'
p136
(dp137
g3
I141
ssS'Lj8kQx9hKC1cDjpxrCcZ9g'
p138
(dp139
g3
I106
ssS'eJuwXskIZgYONY5V5gyJsA'
p140
(dp141
g3
I877
ssS'iUDzGK4jnUZ-9s_MQ0MgeQ'
p142
(dp143
g3
I440
ssS'rCbHnzqAHfgMqF1u6Odrig'
p144
(dp145
g3
I222
ssS'zCnI_xiNYnY6ebGwkj5yvg'
p146
(dp147
g3
I124
ssS'B00KpTUl01haPWO8wryRcQ'
p148
(dp149
g3
I286
ssS'EbiSkEWyXArspnHV83FIfw'
p150
(dp151
g3
I844
ssS'v_Sfd2SCmHudHvxkNYlPmA'
p152
(dp153
g3
I972
ssS'xWFveKkD_On3HUQuVs9WJQ'
p154
(dp155
g3
I691
ssS'Q5dlLCEni_my05az9wIptg'
p156
(dp157
g3
I200
ssS'MqKtiMUnd1CdvNKUIlNspA'
p158
(dp159
g3
I271
ssS'qwoXwrIz5fTfo_sm6qB4BQ'
p160
(dp161
g3
I346
ssS'i3WkwkLYuXBKHhhpg7W9KQ'
p162
(dp163
g3
I427
ssS'zihG1Nzuw_G_mqbIvc7WCA'
p164
(dp165
g3
I535
ssS'B3hsF-thq9MNpUnWX3yE_A'
p166
(dp167
g3
I981
ssS'sqgvPaVrZUqily4fLyBxhQ'
p168
(dp169
g3
I463
ssS'dqZCMepmQpJyqR2RoBnnLg'
p170
(dp171
g3
I247
ssS'9Y5Sk4iKWv42MWhTGKAxow'
p172
(dp173
g3
I874
ssS'lHbeDjwP3jUAud5598-WXA'
p174
(dp175
g3
I257
ssS'_yHJOWee2trtkQZcPk7cEA'
p176
(dp177
g3
I898
ssS'SbM3to9kI2At3UXQ-gHcWQ'
p178
(dp179
g3
I586
ssS'Ca8VnQ5BU9VxUUU3BNKEkQ'
p180
(dp181
g3
I462
ssS'R8xAZICRKkz91tdMgXNGPA'
p182
(dp183
g3
I814
ssS'LQzGSVqJ8uK3tDCySUoLOg'
p184
(dp185
g3
I32
ssS'8558DZW6DLfe2uqDBD7QAQ'
p186
(dp187
g3
I363
ssS'3Z2c8dL_nRXc7dd5_sFsPw'
p188
(dp189
g3
I549
ssS'lE-kuKj1KaSSamkFyAEJxw'
p190
(dp191
g3
I390
ssS'4ISIH0HF6h2FuRm41s_NzQ'
p192
(dp193
g3
I123
ssS'huTDGf8mt5cfKkIcUuSSdw'
p194
(dp195
g3
I441
ssS'q4PsP-pSsyvMwJNsij1LwA'
p196
(dp197
g3
I155
ssS'dBmOdTlEnEbGaPcnDfmZ_Q'
p198
(dp199
g3
I126
ssS'AnH84g9V10x41CXmCvcaFg'
p200
(dp201
g3
I4
ssS'K49NqX3MDrMb7bb3oi50WQ'
p202
(dp203
g3
I904
ssS'PwVkjWri9euI8ZPxT3h-Gg'
p204
(dp205
g3
I636
ssS'IhcSEoCfhVpdAjWFZLSh0Q'
p206
(dp207
g3
I173
ssS'rQhZBuu1pMaCv8kGHZPI9g'
p208
(dp209
g3
I857
ssS'st5UhVPtgKi2txxC1bOHDg'
p210
(dp211
g3
I525
ssS'2rawUU9YgDUy9mTXj5NuSw'
p212
(dp213
g3
I122
ssS'4cfwFsinU5Bo7xNl3ubu-w'
p214
(dp215
g3
I11
ssS'D7orLrwLAXbaAVwqTSSY7w'
p216
(dp217
g3
I130
ssS'vtedgK7wCKBqRyPOh6alPg'
p218
(dp219
g3
I97
ssS'QOSTq9c9B39rdVBOBs9xWQ'
p220
(dp221
g3
I954
ssS'EDQu4BwmsEyQlFTMOz7QMw'
p222
(dp223
g3
I219
ssS'1NqzsgYtUwyngVyKzs_Lgg'
p224
(dp225
g3
I129
ssS'liI8PxidwlvjybXKh91ygg'
p226
(dp227
g3
I739
ssS'rB88x78r2193kimaEw6f5g'
p228
(dp229
g3
I621
ssS'USljcMQ6GYAD7IpyozCrrA'
p230
(dp231
g3
I181
ssS'I_a66BCmsIBJmnKqGWog-w'
p232
(dp233
g3
I443
ssS'DTP52fME67rMpgYX_MZoxw'
p234
(dp235
g3
I108
ssS'g-U0K5bUW4Gw1dBrw5ph7A'
p236
(dp237
g3
I436
ssS'Ap5atWJUGnJ6B-XCzbZjWA'
p238
(dp239
g3
I835
ssS'UJSYOfLmGOMzap4x5XEXUw'
p240
(dp241
g3
I375
ssS'ZbVdJbvRJVNFSI8grjJbzw'
p242
(dp243
g3
I888
ssS'zVNc8gzdfmuDcddIX5uHhg'
p244
(dp245
g3
I891
ssS'mEMZxvHpemSxn1gl7Lj1Zw'
p246
(dp247
g3
I895
ssS'_xYIooRFMEy0vI8QFWh3Ig'
p248
(dp249
g3
I565
ssS'CGHMtojw7P3_UYn1lMrwPQ'
p250
(dp251
g3
I57
ssS'VBE0RoBJEG_yvHkRrLkTyg'
p252
(dp253
g3
I985
ssS'9uEx4uWPeQS9d_rz54D-kw'
p254
(dp255
g3
I533
ssS'zjWmhqGl_L1F8VzuuzaDUQ'
p256
(dp257
g3
I72
ssS'1MXbzXQxxC-e9O7R5N89bg'
p258
(dp259
g3
I192
ssS'8RU-e0hOLVKpKmHqFpn4PQ'
p260
(dp261
g3
I968
ssS'r2dEIHPmQ33AmdLkjYE1_w'
p262
(dp263
g3
I371
ssS'FePVqKPLE-c-3agejn_bIQ'
p264
(dp265
g3
I243
ssS'aQNrTkTUC2Ucngtx4T2k-w'
p266
(dp267
g3
I942
ssS'Z1kxY2ylzi2X8uDl8OIHAQ'
p268
(dp269
g3
I328
ssS'LRuMicnZTzPfG6xFwwPSmA'
p270
(dp271
g3
I342
ssS'aSlle7NHaeLIojxn_Gjhbw'
p272
(dp273
g3
I405
ssS'7P9okhRRYG0hz02Fk7tRMw'
p274
(dp275
g3
I791
ssS'hH242qEveozQQL_QellTbQ'
p276
(dp277
g3
I536
ssS'jsn7UDsAuVS9tFqG3qlRCg'
p278
(dp279
g3
I490
ssS'Z8za-d6YJuLSPnfgMTQEew'
p280
(dp281
g3
I114
ssS'nIzKqL9MzOZwoZZUdaJn3w'
p282
(dp283
g3
I583
ssS'8V1itryD-OFPou8qE3d90g'
p284
(dp285
g3
I515
ssS'uT5cR9M8gDwL0qze91sloQ'
p286
(dp287
g3
I67
ssS'9H-Xsn5sHtYU-4cA8bj7uQ'
p288
(dp289
g3
I248
ssS'ZKxIFQ1iIHkJ2D9MlI0RqA'
p290
(dp291
g3
I75
ssS'q7YgqjzeHpT3Bl57dm49UQ'
p292
(dp293
g3
I632
ssS'hQxx3VixUBVmqDPCJBnBvA'
p294
(dp295
g3
I875
ssS'kNtuMa19HAvQzrAFjXc0RQ'
p296
(dp297
g3
I279
ssS'hoWQwHk3n8RQSonNGyuJig'
p298
(dp299
g3
I332
ssS'ByOxnioKRball6-8UXn04w'
p300
(dp301
g3
I132
ssS'NJ4kHw9QGaSXmuA0ihem3g'
p302
(dp303
g3
I815
ssS'69u07iiOtbtRvLS6I4-DTw'
p304
(dp305
g3
I789
ssS'W5fdWpuyWBhfOsd0C_qq6g'
p306
(dp307
g3
I477
ssS'3_sg9yG5BN0KxEm3M18ojg'
p308
(dp309
g3
I89
ssS'HlnPQvT5UrQPzW5igvZCBQ'
p310
(dp311
g3
I945
ssS'8q8NzDT6BCwmxyVtsNkKeg'
p312
(dp313
g3
I479
ssS'K5gH9yJr9440RqoreAIODw'
p314
(dp315
g3
I820
ssS'GvKJx4m-m_4SKS81vVa5Pg'
p316
(dp317
g3
I276
ssS'1WLjUSOJQLA8l4OzI7Vnog'
p318
(dp319
g3
I352
ssS'aLQg0IezMqCOEQv_ux0Wlw'
p320
(dp321
g3
I344
ssS'_cw9UBk_v0ABz8qv5SgT6w'
p322
(dp323
g3
I102
ssS'ddE6Bo-FBfXKOH1qhLpC9Q'
p324
(dp325
g3
I47
ssS'ZqnD-bi48ThElMfvIvYuTw'
p326
(dp327
g3
I802
ssS'yskQC0PfTuqhaCa-vuKu7Q'
p328
(dp329
g3
I506
ssS'RCnxqhcU612sRB4f4o6oBA'
p330
(dp331
g3
I399
ssS'LdI_xKBiA2vZOAnh0Eaqmw'
p332
(dp333
g3
I151
ssS'snXrAPzoE791KtgqdUaT5w'
p334
(dp335
g3
I74
ssS'amIA_SNQ8nzMSVDJBRHJ_A'
p336
(dp337
g3
I111
ssS'P5VfQpNis_p_vAh0m8xzsw'
p338
(dp339
g3
I326
ssS'athlTNmNKJJkBorb9NrZtQ'
p340
(dp341
g3
I184
ssS'lcAiWcH_UPpKjShwvuau5A'
p342
(dp343
g3
I292
ssS'DUKYeqmxEXvuaEYEpvmcGw'
p344
(dp345
g3
I210
ssS'4q4GBS0Uj04ZKAwHGAJzug'
p346
(dp347
g3
I370
ssS'-hxEN_G-PWIuGLEpms_SFQ'
p348
(dp349
g3
I293
ssS'k4Wu8s_XEPrrJzxOK3h31A'
p350
(dp351
g3
I15
ssS'kxQWT3Xozgw6dGcs-5Y7gQ'
p352
(dp353
g3
I871
ssS'geh4waxniwq0J73Rrf1Oog'
p354
(dp355
g3
I298
ssS'WKzBtp4-XKCvzS4jbjPy8w'
p356
(dp357
g3
I569
ssS'Mok_mgROs5VdeMDmJ-FcSw'
p358
(dp359
g3
I413
ssS'xFdK5lgUdeT3bWC7_MvcyQ'
p360
(dp361
g3
I522
ssS'5w_39fixYcbWU29Bi7VNqw'
p362
(dp363
g3
I12
ssS'UNvzm8xNhwtqv9oaL5zetA'
p364
(dp365
g3
I323
ssS'UYBI9c3eu-F7Gux_LRt-Bg'
p366
(dp367
g3
I24
ssS'GxkvtAcFzwQ4u3DqQ-B80A'
p368
(dp369
g3
I876
ssS'nYa0GRbjizzzKoVOm9-lsQ'
p370
(dp371
g3
I21
ssS'zk3hJdCioZn_6KoSdCBWMg'
p372
(dp373
g3
I193
ssS'OR5a1mXpxkgQjP6foOqiGg'
p374
(dp375
g3
I345
ssS'X_spYLPDE3aPc49NYi5iGw'
p376
(dp377
g3
I902
ssS'MsQBO-xYhMB4-M3nNS-Oxg'
p378
(dp379
g3
I818
ssS'VhckaXtC06O4YSBpVPXFgA'
p380
(dp381
g3
I459
ssS'fL9qw4HaSEXyNz_dkmvW-Q'
p382
(dp383
g3
I574
ssS'3lmbN9XXScviLES_MWo3wg'
p384
(dp385
g3
I453
ssS'TeBftXr_HLzfh4DWTnyETg'
p386
(dp387
g3
I324
ssS'xvxRXIpwKlewySjGgJOz8g'
p388
(dp389
g3
I296
ssS'7ZiOkVdUFL2BzT-BEttS8A'
p390
(dp391
g3
I931
ssS'i5Cu3OeBoznJILCO6J_DAg'
p392
(dp393
g3
I698
ssS'NU8gD3PKAOgx3dwkZTzJXQ'
p394
(dp395
g3
I404
ssS'Oh8T-VN-f6fP5PjkaPJaJg'
p396
(dp397
g3
I81
ssS'VGnJgwt_MM67DfjPpbLsJg'
p398
(dp399
g3
I772
ssS'doKLiI1wRPGcuQwXUttk-A'
p400
(dp401
g3
I388
ssS'Vgos46QFtgjz4HizCGjsag'
p402
(dp403
g3
I681
ssS'DLwmGnV-BbU8KMekwA3Bvw'
p404
(dp405
g3
I487
ssS'QH06_d6pEJHljM4vzJ-Dxg'
p406
(dp407
g3
I977
ssS'yoQAZWDdBW3kQH7geFEoWA'
p408
(dp409
g3
I125
ssS'tqjY8__KQI5kE8pA41nUEw'
p410
(dp411
g3
I174
ssS'lntzJV5nXoFc9V9XNhfuow'
p412
(dp413
g3
I810
ssS'M54RVVoZx-E2aBmqad2pUQ'
p414
(dp415
g3
I950
ssS'rzDI_UhXhxbcU_saGfo3Zw'
p416
(dp417
g3
I87
ssS'z_SAA_fwDUVj307ftcz9Og'
p418
(dp419
g3
I354
ssS'TDJJoctj-G7iacoMB-Hyig'
p420
(dp421
g3
I485
ssS'B5b5JSPx_opmHIbtFXO0fg'
p422
(dp423
g3
I467
ssS'cTeWfsM-BLjmOHjhq3CoaQ'
p424
(dp425
g3
I782
ssS'l5pzI8wLr0UyvrCjDvGcRQ'
p426
(dp427
g3
I28
ssS'dMRZ8JO-io8Jon3SWkpFQQ'
p428
(dp429
g3
I392
ssS'SNjn34yI1PVgB-GSHboZHA'
p430
(dp431
g3
I578
ssS'Z1lPtIHU7bRoIvuVa01H5w'
p432
(dp433
g3
I513
ssS'Um8eFxZBCxCR4FNGO0DeEA'
p434
(dp435
g3
I233
ssS'tiL3Kv0UqT9QXqerMKURrA'
p436
(dp437
g3
I376
ssS'VPehlk5oBj9PMR5-hDe8wg'
p438
(dp439
g3
I378
ssS'vGnrJC9Dk2vOI7AbQzJtwA'
p440
(dp441
g3
I107
ssS'bojV4Fpd17q6RfrsLJJa9A'
p442
(dp443
g3
I316
ssS'qbiZyhbuhTMENzs4XH-gzg'
p444
(dp445
g3
I649
ssS'9u3u2A_4psVKEMReB3O0Hg'
p446
(dp447
g3
I690
ssS'OD0bS6VMiSFjiLGTcDAi3g'
p448
(dp449
g3
I412
ssS'hDANOMKLeEqwzytjxAuZWg'
p450
(dp451
g3
I705
ssS'nAmfiopC7tSuK3mN24ouRQ'
p452
(dp453
g3
I629
ssS'HnqzojvN3AyZHjslUlxiJQ'
p454
(dp455
g3
I841
ssS'zpyCYiY3oom114YReTZXtw'
p456
(dp457
g3
I94
ssS'wkg3vUgiAxtwOXiWHFOQCA'
p458
(dp459
g3
I321
ssS'w1eKP3FHBwsWAnMVIUcxkw'
p460
(dp461
g3
I808
ssS'IrmsjAqxw7UgZfA9imDfEA'
p462
(dp463
g3
I507
ssS'Vsfr0PxH_A458czK15n8dw'
p464
(dp465
g3
I38
ssS'U5o-sFDDSkOEWCiaY8A7ng'
p466
(dp467
g3
I737
ssS'o1F6ndeDv47bU747WwdRGQ'
p468
(dp469
g3
I153
ssS'GAW_mbLDbIoZQ0V0ZhWK8Q'
p470
(dp471
g3
I868
ssS'CdLftBll7-QXTYHtMYlINA'
p472
(dp473
g3
I677
ssS'77s2qg6JOqXy69stUku6ew'
p474
(dp475
g3
I236
ssS'WR9pKtQEhI4lSCnBNtDRqQ'
p476
(dp477
g3
I958
ssS'fqGb3ZRpIMRlSjbmel_a1Q'
p478
(dp479
g3
I615
ssS'OvtofYhdDi6Hd1SPsVMHzw'
p480
(dp481
g3
I133
ssS'D3ERNOMC7BsrZFalhF98RQ'
p482
(dp483
g3
I92
ssS'gIEyHQJeyBQ8IhYusvTIGg'
p484
(dp485
g3
I34
ssS'G2j77mz1acbOeZbhpFLXQQ'
p486
(dp487
g3
I764
ssS'iw47eXrY2Dg9nSeSbJBoyg'
p488
(dp489
g3
I748
ssS'qEP9j5D01Gxu34FzM0KQiw'
p490
(dp491
g3
I679
ssS'ZaGhEF1JO8tFS7mGxvRxNQ'
p492
(dp493
g3
I722
ssS'bG5NCpDDNBXQGvOCSZABnQ'
p494
(dp495
g3
I838
ssS'ScwPKOPo32-8CxFsNgz43w'
p496
(dp497
g3
I148
ssS'lvw3M-0n4Y44ueUZxtjV5g'
p498
(dp499
g3
I587
ssS'zeCW2mgLhKv72XUg8GSMpg'
p500
(dp501
g3
I466
ssS'LQ3OgK-ReUB4M0v8lBsDiA'
p502
(dp503
g3
I575
ssS'tP58SA3jd2iUM6bnxB1XZA'
p504
(dp505
g3
I455
ssS'rg5pRVVh-mtBjNqKB1N2Tg'
p506
(dp507
g3
I265
ssS'QcmeSnGpFF1yJH-2MdYPMg'
p508
(dp509
g3
I975
ssS'vUWfWfGW6L_DVKHk6I5YYQ'
p510
(dp511
g3
I407
ssS'KuDouv9AVGCnAf6RPO0uoA'
p512
(dp513
g3
I672
ssS'cHJuly2HUiFm9A6HJDUswQ'
p514
(dp515
g3
I881
ssS'eIUtPdoj7CbqzBWEiHH38g'
p516
(dp517
g3
I848
ssS'DkqJk9SB2QrTqAqIFDoJQg'
p518
(dp519
g3
I121
ssS'umn7lF1vDsNEEkFE7ipvFA'
p520
(dp521
g3
I217
ssS'DXWzfsWOiF6RN7cgNrdLsg'
p522
(dp523
g3
I951
ssS'W-t4Z0U6juN6NV8cpCPD5Q'
p524
(dp525
g3
I596
ssS'Tvukt6Vy-FEWjBrNqlwgCA'
p526
(dp527
g3
I693
ssS'FnLPROPpL9969Y7wxD2Czw'
p528
(dp529
g3
I730
ssS'rd95Z-Z5OX0mTuiI_hlRhA'
p530
(dp531
g3
I470
ssS'HfJJHwYWq2tNzPm2CtFU6w'
p532
(dp533
g3
I270
ssS'BuHjp_pUCOQpENOvLadlrg'
p534
(dp535
g3
I697
ssS'gPgpg7HXHBKu2pkefNFgkw'
p536
(dp537
g3
I1
ssS'X7dxykmIV9LL5ZxLtgQYXA'
p538
(dp539
g3
I580
ssS'bvYk98zUE61KoWifshskpw'
p540
(dp541
g3
I312
ssS'mKdzt7wa73H1CVY6sHZNKg'
p542
(dp543
g3
I457
ssS'HVqnEnkir1iGG0185VzYRA'
p544
(dp545
g3
I837
ssS'1qdj_KsKTguk-vA4cVYMaQ'
p546
(dp547
g3
I551
ssS'8LCurKQmwfQHM1BLxe1FoQ'
p548
(dp549
g3
I978
ssS'aSSmveYvsSqaQGsY6EtZ2g'
p550
(dp551
g3
I966
ssS'a8ybHTd5NccDDYoH3nBARQ'
p552
(dp553
g3
I382
ssS'cEIeuU0-4fX0Y4qCUW3PwQ'
p554
(dp555
g3
I828
ssS'MsssdK1rwgR7Krwc8oRSUA'
p556
(dp557
g3
I712
ssS'B3oCDlO3uBUrFQu-xmr6uQ'
p558
(dp559
g3
I260
ssS'nsbsJl9mt_iSfRXLoQkiSw'
p560
(dp561
g3
I566
ssS'CbvxZGfTYdTVS7BlUpg1iA'
p562
(dp563
g3
I696
ssS'RF74LWUXaoZjNPpt4782pQ'
p564
(dp565
g3
I890
ssS'nuBvtb-UtM2k4seweIF0Rg'
p566
(dp567
g3
I391
ssS'2DKJRZg5tr62qRzTvYN71A'
p568
(dp569
g3
I164
ssS'Y497fqbB-j-mQv5pyHWBsA'
p570
(dp571
g3
I44
ssS'q_ai03td7FGTmZtm6tjPZw'
p572
(dp573
g3
I740
ssS'VPVHihYwrlvzx_o_gLtk5A'
p574
(dp575
g3
I678
ssS'9DYasJE3TtxptCcsZAyg1A'
p576
(dp577
g3
I421
ssS'PZ9FB1czAYXuxLH7eegBvQ'
p578
(dp579
g3
I668
ssS'1RzIO45cnhjXSskxltcYdw'
p580
(dp581
g3
I663
ssS'W2BqQJEQnJrHrioGNSrhxA'
p582
(dp583
g3
I840
ssS'krOd6-nWhQTczGwR8gtwiQ'
p584
(dp585
g3
I41
ssS'tPC_QEQwcxXq7sUUes-EHA'
p586
(dp587
g3
I76
ssS'Vk-hJ1i5ZagPM87Kv9FOnA'
p588
(dp589
g3
I785
ssS'nRmY8xckMgwfNHoRR9qyMg'
p590
(dp591
g3
I624
ssS'_qQJEA45k_E6EGE7vuzUDA'
p592
(dp593
g3
I198
ssS'_8ODJpxxVHAKrkZ8lh766w'
p594
(dp595
g3
I64
ssS'oerNJk8K3TAmgvMx4kYBkQ'
p596
(dp597
g3
I368
ssS'bsyR9PbYiZ-EYSDf4_2LsA'
p598
(dp599
g3
I494
ssS'zxW4ceCK6pb4XhhJx61i9Q'
p600
(dp601
g3
I387
ssS'oz7O21xVQUz1GkqvxHdfHw'
p602
(dp603
g3
I745
ssS'BlSlcDEEeBg5KGqBkE-Lng'
p604
(dp605
g3
I582
ssS'PxZR1n5XGbANSIe5fEbt9A'
p606
(dp607
g3
I793
ssS'bBYJ4vDrF5WP72EV-d_rVA'
p608
(dp609
g3
I403
ssS'DxunzEyOqnHni1d3862WqA'
p610
(dp611
g3
I501
ssS'G0kzbeTY_I9rQ6VWKLrz1g'
p612
(dp613
g3
I37
ssS'tfE5UXf-MKsbil7GVRKHow'
p614
(dp615
g3
I187
ssS'vi1CegNu2LoKDT3PLfsG0w'
p616
(dp617
g3
I235
ssS'X5T0BycZ_h_z7fy7jzsAaw'
p618
(dp619
g3
I720
ssS'6DBOFA0Z6TYIG8mJp3H8zw'
p620
(dp621
g3
I735
ssS'Bpnfl_wZhPdDxfxq1WliGw'
p622
(dp623
g3
I285
ssS'OmSHc5_4ESrvxKldqLiTHA'
p624
(dp625
g3
I191
ssS'i_ZtfGL738mlh-BMmMOvtw'
p626
(dp627
g3
I957
ssS'8Y5ETV2Xf91biKj_sajB2A'
p628
(dp629
g3
I10
ssS'B_4H__6wcNBSJStdbYRKWw'
p630
(dp631
g3
I816
ssS'oxMvO4dIRR4DbhjjfpdDCQ'
p632
(dp633
g3
I859
ssS'RblMMhqKiwF8rJBttT2OEQ'
p634
(dp635
g3
I526
ssS'5Ci40YO5OQHSh7iyy_kAHg'
p636
(dp637
g3
I952
ssS'uvtSoXbel421pGFLrkDaTQ'
p638
(dp639
g3
I762
ssS'1eXzNPQGdLBDQDzCXn0m5Q'
p640
(dp641
g3
I563
ssS'458bvbL7S9CrhyCM-JxaYA'
p642
(dp643
g3
I96
ssS'Pl4fs0QWR8FbnVNCzqF9lg'
p644
(dp645
g3
I199
ssS'PLQNK4t7Y0d4DsVZS5c2sg'
p646
(dp647
g3
I40
ssS'H3lKrfy2j_xvazQTl5VBRQ'
p648
(dp649
g3
I609
ssS'vy5C_aaAVUNVqsxq4z6oyg'
p650
(dp651
g3
I294
ssS'mS1bniaal0iKZjiijNC5wA'
p652
(dp653
g3
I715
ssS'K4iqvVwkTMMXtQzr1Gxayg'
p654
(dp655
g3
I755
ssS'_aguQTUp7kMlWhWr2mojdA'
p656
(dp657
g3
I559
ssS'kpL8QIE3Fzm2HuL-TguSvA'
p658
(dp659
g3
I425
ssS'5pILIG8IjyNGLbyEd2IIqQ'
p660
(dp661
g3
I539
ssS'b-evj2FD7kum2QjN2Ogtcw'
p662
(dp663
g3
I807
ssS'usyCze4iT4H8v3Q8Y7-XLA'
p664
(dp665
g3
I220
ssS'OXcwHhjuyzdzSfkWXPHh_Q'
p666
(dp667
g3
I585
ssS'l2P8Ow-wl84ufKEAwee1Qg'
p668
(dp669
g3
I468
ssS'FU9C7AyE3ddFQEUUxgnGvQ'
p670
(dp671
g3
I845
ssS'fKORWaw8O_H6gUqpfhJeEA'
p672
(dp673
g3
I456
ssS'LgLgYIjZlO_0Gz15vIZpUg'
p674
(dp675
g3
I308
ssS'Gf8NVQxc4Q9dzwgSzGvAWw'
p676
(dp677
g3
I480
ssS'GlVIC6S7gs2MgWp89oDu7Q'
p678
(dp679
g3
I804
ssS'01WGYKc9lVq-V6fG_eyj3A'
p680
(dp681
g3
I400
ssS'0tXLSW49AbQX-xsWmWe48Q'
p682
(dp683
g3
I979
ssS'OIT-HguicQdkDmBf8IX2YQ'
p684
(dp685
g3
I545
ssS'rzTiF2R0BlkcV4P-icc9Qw'
p686
(dp687
g3
I560
ssS'34TwcChxsSVJvgNKdo2gFg'
p688
(dp689
g3
I714
ssS'ka7flawtUTuKdCnmIwSWbA'
p690
(dp691
g3
I186
ssS'fmwSRiZm6_VSyvuCHr3bLA'
p692
(dp693
g3
I723
ssS'A9E7Q0PSFjNhbCyRqHMfdg'
p694
(dp695
g3
I669
ssS'eSAmN-5RAu8y1igSvz_yJw'
p696
(dp697
g3
I728
ssS'qx_DXm3TRKFEyDWu8FSQQw'
p698
(dp699
g3
I472
ssS'lHZsCZ4KZsxeiixQ1lBxLA'
p700
(dp701
g3
I727
ssS'bG-r4zndr1xuon0pHbUrcg'
p702
(dp703
g3
I396
ssS'uzeuP7sGm7Ez8TSIVtI9rw'
p704
(dp705
g3
I976
ssS'u_kYcSzhChLNSHTYkYAaSg'
p706
(dp707
g3
I353
ssS'11nPfbEj3klY4P9mR_9MpA'
p708
(dp709
g3
I695
ssS'6FSlqQQKCupdELrDBWat2w'
p710
(dp711
g3
I395
ssS'yleC7Xb7KsDpefskB_ntNQ'
p712
(dp713
g3
I261
ssS'oDP2A1XFPyxeaGcCpUvX0g'
p714
(dp715
g3
I277
ssS'OHSY29xNXlsfLKyZWWR2ZQ'
p716
(dp717
g3
I771
ssS'R6Vq-WN_NG_7JPiyge0-KQ'
p718
(dp719
g3
I115
ssS'nLLNFEB-Q__YLg4j9sU1Gw'
p720
(dp721
g3
I757
ssS'UxSpJ5XG16O_FKCitfWaWg'
p722
(dp723
g3
I938
ssS'1afCaO9ygoGVjuky0G5P_A'
p724
(dp725
g3
I584
ssS'zv0xza_2RteC7J7Mj7-FtA'
p726
(dp727
g3
I830
ssS'XjZvEcesF5atTt7D1qbnxg'
p728
(dp729
g3
I162
ssS'mtplpDMx4CGA-MIjy9LqOQ'
p730
(dp731
g3
I9
ssS'HOGLp_JViSE-_3-iIAXiCA'
p732
(dp733
g3
I476
ssS'2HjoyyLYgRtxC2RYb6wOkA'
p734
(dp735
g3
I700
ssS'TH6_NDQIcEZkM2U6Br58CQ'
p736
(dp737
g3
I953
ssS'lKp7An-tDjdDlwkPevNLlA'
p738
(dp739
g3
I826
ssS'JQnT2lCJrg0v277C4OpunQ'
p740
(dp741
g3
I605
ssS'1MYTItCI5ILmHTeQMDLIHw'
p742
(dp743
g3
I152
ssS'MKZh-O5OLJcR1exReXhJHQ'
p744
(dp745
g3
I965
ssS'gD9efnmdVlKUodSEHWP3jA'
p746
(dp747
g3
I264
ssS'JYh9BEwv0rs4pykao5kmXQ'
p748
(dp749
g3
I209
ssS'KmTWM15sTkK0HfzEzjbTUA'
p750
(dp751
g3
I909
ssS'JG5PCcUmJP46MS70H7HdcQ'
p752
(dp753
g3
I127
ssS'IwDii1N3yCTXsgs4Nm2OEQ'
p754
(dp755
g3
I110
ssS'rjG63heZZlggLU6mi0roLQ'
p756
(dp757
g3
I973
ssS'Xo6W4Mk2fqsO30WTJmrkFg'
p758
(dp759
g3
I855
ssS'Rxtyw8vApQ6Qb9Kk6Qg78g'
p760
(dp761
g3
I768
ssS'WCBz-xTApNh4u1VA_HKNLQ'
p762
(dp763
g3
I205
ssS'1H2EoisjocvvLSoKy8xUeA'
p764
(dp765
g3
I970
ssS'6ELTSafVzJBjIt_kmOCwtQ'
p766
(dp767
g3
I884
ssS'DcDakx2MYvfvlyftMbnDtg'
p768
(dp769
g3
I784
ssS'm5CbcLbjIQygKB6lwi0dbA'
p770
(dp771
g3
I618
ssS'rAQG7AU26ggJfFWTHdN83w'
p772
(dp773
g3
I88
ssS'0TfylmtXvM3OriKSHforyQ'
p774
(dp775
g3
I338
ssS'vN25DTdMDr718zMCAgJvQQ'
p776
(dp777
g3
I861
ssS'qU7X0MZ3_eS4joV1s-E_qw'
p778
(dp779
g3
I946
ssS'Hp4mRCRkqAb8XKjJH3-5zg'
p780
(dp781
g3
I495
ssS'JzUu_4ylictUwURtS3T8lA'
p782
(dp783
g3
I994
ssS'mQiNQrGkZlBj4dFQuAB7cA'
p784
(dp785
g3
I449
ssS'HfEjLlPBsJIfUy4EBlbxZQ'
p786
(dp787
g3
I340
ssS'KZNSGr0ORGviw6am864jNg'
p788
(dp789
g3
I710
ssS'tq1qTgo2itvAf1JOgTNDFA'
p790
(dp791
g3
I645
ssS'4RuPTPxT12NoeYw69QJLUA'
p792
(dp793
g3
I496
ssS'WvCaG17GKs9N1B7yocJAww'
p794
(dp795
g3
I505
ssS'Ebp9AHzNc4iUqszmFwjfJQ'
p796
(dp797
g3
I502
ssS'uYecHRyGu6zbLP5NRnNFyA'
p798
(dp799
g3
I955
ssS'NnTJeOILXE1cYUZ2X02eMg'
p800
(dp801
g3
I98
ssS'df-yTh0TyCCsAc6lop_Dig'
p802
(dp803
g3
I567
ssS'_qEHpIm100z3kWEzUKBL4w'
p804
(dp805
g3
I657
ssS'ItyIo2YLwuY-ewj8i3HCgw'
p806
(dp807
g3
I822
ssS'Lo2-ynQg1nz5lSKCdHZDnQ'
p808
(dp809
g3
I704
ssS'WehFzm669jOnrAawYgy8lQ'
p810
(dp811
g3
I364
ssS'FKViOrC8nGcyUH8HNuBFgA'
p812
(dp813
g3
I659
ssS'0CIP-nma5yM9HY1OOBS2yA'
p814
(dp815
g3
I779
ssS'un1kHFIU6nhs9jAuh4cq1Q'
p816
(dp817
g3
I766
ssS'3UHFF9kWZgIFHaaoBk5xCg'
p818
(dp819
g3
I949
ssS'F0dO68TECqEJBhBJ4P0qVA'
p820
(dp821
g3
I497
ssS'gAdPoa_pmDX3k2FXejIA2Q'
p822
(dp823
g3
I557
ssS'9hV1kkxt4WlDyR7tV9OjUA'
p824
(dp825
g3
I873
ssS'd_u6ztf8pFMaPS-7jZx4gQ'
p826
(dp827
g3
I523
ssS'hz4hgPHPJAFDI04xoHP0nw'
p828
(dp829
g3
I758
ssS'7db4MbqU3mOB-iMYNo3IIg'
p830
(dp831
g3
I393
ssS'de5kniapGiGBCkSuF_NwvA'
p832
(dp833
g3
I544
ssS'As9N51A__ZGQV2P_Dy7jIw'
p834
(dp835
g3
I161
ssS'_t3tNHlXdgxdJtyVV-izcQ'
p836
(dp837
g3
I546
ssS'x8gKk8IWe7f0MWEZs44iYA'
p838
(dp839
g3
I591
ssS'HrSDsUcoNLBSklzawd7N6g'
p840
(dp841
g3
I460
ssS'eOsWmRTMQ-wQxFG8exD6ag'
p842
(dp843
g3
I849
ssS'uP8YXy1Hd_2X7OHbOTy1yQ'
p844
(dp845
g3
I894
ssS'_q1sPArBLzqaJAcQGL3RPA'
p846
(dp847
g3
I356
ssS'CwMU-8VjTyNf2eDM52RlAA'
p848
(dp849
g3
I29
ssS'qQeJjsKYqt97BU2T94hucA'
p850
(dp851
g3
I862
ssS'mzsxw30xLUWAVfWOCh2VLg'
p852
(dp853
g3
I478
ssS'071SxYB7Z6l88KZxhpz8Rw'
p854
(dp855
g3
I258
ssS'v721TYO7DMiU5Dfd8tOnmQ'
p856
(dp857
g3
I508
ssS'73JydaeS9LTmjBkonkmlog'
p858
(dp859
g3
I0
ssS'IieMdHpQPRBoZeMUmu5e8w'
p860
(dp861
g3
I937
ssS'3QTLKmwhmfEVr5r2OrHO7g'
p862
(dp863
g3
I592
ssS'mz76QextIDVa2alekV8xcQ'
p864
(dp865
g3
I301
ssS'JP4kKXHPzIpYQueQJyM9ZA'
p866
(dp867
g3
I469
ssS'ntCd3KV8YUQMhwGfVRssrg'
p868
(dp869
g3
I136
ssS'cVrh_fc0YYoGJF_Z4KYIJg'
p870
(dp871
g3
I14
ssS'n3cgAR5_x5ylr2fARqSYjQ'
p872
(dp873
g3
I214
ssS'2zcbUYWR4dg08JwdqIZUzw'
p874
(dp875
g3
I42
ssS'XNUID_eWSQ_7EBl-tbmuTg'
p876
(dp877
g3
I847
ssS'GfAr99ZEB6IjjglFON7W2g'
p878
(dp879
g3
I620
ssS'WkTWq6B-2HOj2Rzn4E3Cbw'
p880
(dp881
g3
I417
ssS'6e7pZofhDuIlD_rX2oYirQ'
p882
(dp883
g3
I608
ssS'ByUw3SBnukGsOBj-fRXYHw'
p884
(dp885
g3
I571
ssS'P1fTAYBeWd4Ar44a28X1uw'
p886
(dp887
g3
I77
ssS'jGis4q0gIIyokZJy9PKgSw'
p888
(dp889
g3
I542
ssS'Iy1hnAjD2ntnib_U5DfRdA'
p890
(dp891
g3
I825
ssS'Qwfupq33DaljtwQS3-P6lg'
p892
(dp893
g3
I521
ssS'CTZ1auELuyHyCgtLa9IAFw'
p894
(dp895
g3
I576
ssS'MyG_npi_PULAjcaL0CUuLw'
p896
(dp897
g3
I452
ssS'Uiaqnjtdyd_lT0td7_I_wQ'
p898
(dp899
g3
I55
ssS's3wrOm-WzumY77drL6m0DQ'
p900
(dp901
g3
I971
ssS'8PVn4cOf2G3DmtOFNtUb9g'
p902
(dp903
g3
I182
ssS'8SHaPRb7J9V8TCiy2acYVg'
p904
(dp905
g3
I634
ssS'5JzjN1XhxHA1Bx3x5ectYw'
p906
(dp907
g3
I347
ssS'rMDqxWBPiNu1sKSWgOuOxg'
p908
(dp909
g3
I667
ssS'JX9VH0pMiAR0nDEct3SExw'
p910
(dp911
g3
I534
ssS'MlaZD0FWYYqa9d1Q7jEGtw'
p912
(dp913
g3
I273
ssS'xd0fvWA4yAed6MclXzxBdA'
p914
(dp915
g3
I213
ssS'6JG_o0l1ZTFR1Igk3f5GKw'
p916
(dp917
g3
I365
ssS'k26h9JJhgxKME5b6DHB-KQ'
p918
(dp919
g3
I45
ssS'IPIDauU59IuJ3YFtRFBeag'
p920
(dp921
g3
I156
ssS'DFr0LYHHTokLFCSniznohQ'
p922
(dp923
g3
I306
ssS'3YPO0fR2FcQoeAroZ6YVeg'
p924
(dp925
g3
I483
ssS'X4LL1HEUyy5OegwSh4MWww'
p926
(dp927
g3
I991
ssS'Ah7dG6IuANBFjkj1vIZ2tw'
p928
(dp929
g3
I589
ssS'yHCzZTF641SyRQGoefRvQA'
p930
(dp931
g3
I907
ssS'AYKw-F5Ji-QP6XFSbx2FdA'
p932
(dp933
g3
I708
ssS'V0r_ncTQawicaHAc8TCb4A'
p934
(dp935
g3
I622
ssS'p9y5qcFZ6YRRQ9PnFcVn-g'
p936
(dp937
g3
I343
ssS'U1p9DkJmINIUqzcPTGz8Cw'
p938
(dp939
g3
I311
ssS'xmLE-TnJ4OIIzotOGS0Kww'
p940
(dp941
g3
I823
ssS'eeHtt-WpXj_2o8aWPn6xOQ'
p942
(dp943
g3
I274
ssS'rEuRybPXUobi4RNg2CYoUg'
p944
(dp945
g3
I686
ssS'ufy2S-Rgfi2t7oUSPt81Gg'
p946
(dp947
g3
I445
ssS'pEmb5ZA1rKidqZ8fSM8W3w'
p948
(dp949
g3
I915
ssS'SRmDr2wbmkw-LIzDofNLSA'
p950
(dp951
g3
I852
ssS'NQ07iEykMtAD6HiAOMr2yg'
p952
(dp953
g3
I189
ssS'fmI5igqIj7ShSj5d4Shsig'
p954
(dp955
g3
I19
ssS'FTgauFuXcJWH_y8v0dYxeQ'
p956
(dp957
g3
I639
ssS'MC7GDKTuUlBIbNkJt3OiLw'
p958
(dp959
g3
I631
ssS'IbNzF_SIdZioYbLnL6F5Vw'
p960
(dp961
g3
I82
ssS'tzCzCKTPUS-CQTeRIOuEDA'
p962
(dp963
g3
I167
ssS'EVNlkkKILjqiJ-i_pDIqeA'
p964
(dp965
g3
I650
ssS'6CcmjilbUSV2ro7Dtk9vTQ'
p966
(dp967
g3
I158
ssS'pg9ohbfdnrVUUuz9DF4-og'
p968
(dp969
g3
I287
ssS'UUMAw4ibw8yzXHj8PjOF5A'
p970
(dp971
g3
I792
ssS'6wp51v_OfbjigXNkp4tKlg'
p972
(dp973
g3
I685
ssS'8u0zhYtIxncG2tViPaP3AQ'
p974
(dp975
g3
I489
ssS'ifFTbGgwjXALO1PgMHzrTQ'
p976
(dp977
g3
I281
ssS'x3be6uxIqd9Dypu-o9KsKg'
p978
(dp979
g3
I998
ssS'PuZF2J_eYLrJE26XEy28yQ'
p980
(dp981
g3
I415
ssS'jqiDWycSAWIhSHIfN_PjAw'
p982
(dp983
g3
I933
ssS'7aDyNdHeAJ1wRHzj-ql-Rw'
p984
(dp985
g3
I908
ssS'6iDVLOkLIDglBr_HLvLUFw'
p986
(dp987
g3
I259
ssS'EabJsW5sDkfUx0WIhqlJeg'
p988
(dp989
g3
I251
ssS'KnutNOkfu5t1XA8rEhiq2Q'
p990
(dp991
g3
I448
ssS'z1iAlPuVainIZ8KRxDphlg'
p992
(dp993
g3
I221
ssS'3OsiqmNEy27BA95-UBr2sg'
p994
(dp995
g3
I654
ssS'cGnaft9JhI10HUQdtHGvRQ'
p996
(dp997
g3
I240
ssS'IyWe_H-XMJgzkELb_ih5xg'
p998
(dp999
g3
I673
ssS'cTAHmPUV8qsqt6jDrjByEA'
p1000
(dp1001
g3
I984
ssS'eQgw5KPAWDEVaadSAMUJJg'
p1002
(dp1003
g3
I383
ssS'wPD9ljQkfObU2gKK5aC5AQ'
p1004
(dp1005
g3
I423
ssS'XeoAojoz5johV2MQ5ngNig'
p1006
(dp1007
g3
I856
ssS'd0wJVf7Gv7v1B-HHYhxZtQ'
p1008
(dp1009
g3
I474
ssS'mVUF_FwZsTqaKa15D_jfPg'
p1010
(dp1011
g3
I175
ssS'V0FpHvMOsrtqURt18glAew'
p1012
(dp1013
g3
I860
ssS'c7ggENjA6ADKWufjj-hZog'
p1014
(dp1015
g3
I339
ssS'wm0ZnKtPVEdRu0VqR3akzQ'
p1016
(dp1017
g3
I579
ssS'q2uXAdDNCLk5pSfsvg-30Q'
p1018
(dp1019
g3
I144
ssS'a7LwaUIfE3Cvf4SzB_uJ2A'
p1020
(dp1021
g3
I778
ssS'xsA727exG40jRulDUlUw6Q'
p1022
(dp1023
g3
I935
ssS'oCuAbzZS0uqo9qtTEyzBOg'
p1024
(dp1025
g3
I54
ssS'_XaulsDbn5ZGrNHG1NT5ug'
p1026
(dp1027
g3
I967
ssS'EUgv13qRQ0OhmG40x_fcFg'
p1028
(dp1029
g3
I143
ssS'8p8HZNmrkUBtMx_vmW9dNQ'
p1030
(dp1031
g3
I879
ssS'U47Z37neGgk0Jqi6sI0uIg'
p1032
(dp1033
g3
I529
ssS'AV3qn49AJVn90B8I72ThDQ'
p1034
(dp1035
g3
I503
ssS'pP6OFE-knZuyO-AldoVYtA'
p1036
(dp1037
g3
I25
ssS'XYytM-q2UFVyQxqbO0KmRA'
p1038
(dp1039
g3
I93
ssS'Cx9PbFydr_O3ptScw3_Iiw'
p1040
(dp1041
g3
I858
ssS'kp-acDKLSeC6h4nPjcaLpw'
p1042
(dp1043
g3
I925
ssS'6jR8qqed8qg-sYKCrvqi1Q'
p1044
(dp1045
g3
I282
ssS'IXw7EypnO7SHPOD3YhCspw'
p1046
(dp1047
g3
I69
ssS'WflwBCqEpOj0gCsFxA806Q'
p1048
(dp1049
g3
I242
ssS'bYZte9JuNzhVE4LxX3FhGw'
p1050
(dp1051
g3
I401
ssS'GHWkgV9PenneX0tI06o1eA'
p1052
(dp1053
g3
I355
ssS'HI4bZhslBZhOTqwKEtF8IA'
p1054
(dp1055
g3
I983
ssS'lt_xvHDaIWagZCJC4lDwuA'
p1056
(dp1057
g3
I962
ssS'q_Apt5Zvm0B6xidd3MdkzQ'
p1058
(dp1059
g3
I379
ssS'uY_ab3pHExugQ2PU65D-Kw'
p1060
(dp1061
g3
I643
ssS'FBE0gDdN4fZH-6uo-mWgPQ'
p1062
(dp1063
g3
I245
ssS'6SLj8XiCdqeR_DHR2JmEdw'
p1064
(dp1065
g3
I514
ssS'5mn4QIgawCizJ22UKqJbFg'
p1066
(dp1067
g3
I373
ssS'jtPs-dYyKeLJY1WluV5F2w'
p1068
(dp1069
g3
I140
ssS'Fep0CeFumoaVteJq5IjOHQ'
p1070
(dp1071
g3
I71
ssS'tc7grD-kvpt42iGpiW5kzg'
p1072
(dp1073
g3
I168
ssS'2zNIXMoBExME-X71i4DfDQ'
p1074
(dp1075
g3
I488
ssS'gtPtqqaEAZGgutUuaM5MZQ'
p1076
(dp1077
g3
I729
ssS'yneluytnFRAf-s4i3JDbIA'
p1078
(dp1079
g3
I104
ssS'n9eTUdnT0ntSGR42X9Q_NA'
p1080
(dp1081
g3
I377
ssS'zRcAlhT0QlZWa2AwcdyA4A'
p1082
(dp1083
g3
I866
ssS'KrH9rydPKh2yX5NE9FJu3A'
p1084
(dp1085
g3
I314
ssS'YdR-kHN82P9hUQ6cd_cPQQ'
p1086
(dp1087
g3
I775
ssS'ZzG60u4gGR31bMtE6ZjFJg'
p1088
(dp1089
g3
I145
ssS'jNQNr11-gW1LxEGlonJKuw'
p1090
(dp1091
g3
I473
ssS'f_geds8UOhQcXVzR4rEtBw'
p1092
(dp1093
g3
I262
ssS'w_hDmPuou6xnemXUu-jc3Q'
p1094
(dp1095
g3
I17
ssS'2me-yA-ogtpYx0Ai_83YoQ'
p1096
(dp1097
g3
I22
ssS'HkcQQwAbP_kI9tgK4DQaoQ'
p1098
(dp1099
g3
I550
ssS'uVDCZnDBJd7KhBPdvbNEtw'
p1100
(dp1101
g3
I906
ssS'xVERHsVYNrP5V10eS4TC1Q'
p1102
(dp1103
g3
I131
ssS'UG0gkwl621U29BWpgSYRlg'
p1104
(dp1105
g3
I429
ssS'wZakvhQ41cw6gjFpi7l2fg'
p1106
(dp1107
g3
I432
ssS'2rJ1L080LsanVT30rVz19A'
p1108
(dp1109
g3
I662
ssS'iAi-PePA7GYb_BeQEnoCSg'
p1110
(dp1111
g3
I980
ssS'8i0HXuzSI_XSMTew4TL2Tw'
p1112
(dp1113
g3
I660
ssS'AqTGBF3a0ovVGklWNg9vRw'
p1114
(dp1115
g3
I518
ssS'QEPZq3EB-j4ElbGr_Fxldg'
p1116
(dp1117
g3
I348
ssS'HcJrn266YlCs_DL5dN_sDA'
p1118
(dp1119
g3
I648
ssS'5neSbVTMeG_HxR45De2Cog'
p1120
(dp1121
g3
I603
ssS'61Bz60XBeVm97vZZaLmraA'
p1122
(dp1123
g3
I911
ssS'sYFuZL35EYDU5IOfwrtwnQ'
p1124
(dp1125
g3
I211
ssS'BKbzK5YQrGVt8ki0L8h1sg'
p1126
(dp1127
g3
I824
ssS'4G68oLRY3aHE5XUt_MUUcA'
p1128
(dp1129
g3
I626
ssS'rI42RSF_6SKEz7dxovAriA'
p1130
(dp1131
g3
I897
ssS'WCh2cVdRMXtvUGpmFi-Y6g'
p1132
(dp1133
g3
I157
ssS'ahu9Mxrb7vckH-4G6AuRYg'
p1134
(dp1135
g3
I374
ssS'swvHMXFRxHOXDrq-T2mc4w'
p1136
(dp1137
g3
I18
ssS'4UYKNH4vyRpQXr0BbViAKw'
p1138
(dp1139
g3
I397
ssS'ffanvUeGxJ9-GQCf41BW-A'
p1140
(dp1141
g3
I530
ssS'1c-64uW6iIkADJsyCiDxHw'
p1142
(dp1143
g3
I105
ssS'7NLjHRvR5lE-jpHZPK-N0A'
p1144
(dp1145
g3
I394
ssS'elBPPGDx6W3k5mu_SL0hag'
p1146
(dp1147
g3
I244
ssS'KJo0cru2sBJyufnGkdHgHA'
p1148
(dp1149
g3
I896
ssS'Zf1To2Hk10mHD0zWpikjuA'
p1150
(dp1151
g3
I255
ssS'6PGrbFCEpBUlpN961gZL4A'
p1152
(dp1153
g3
I540
ssS'AoNL6jI2TfYob8V56Ld9kw'
p1154
(dp1155
g3
I811
ssS'_-Lbs5aXiJyXtfE6ff17rQ'
p1156
(dp1157
g3
I23
ssS'SF4b4tygoDH9ye16JjPgfw'
p1158
(dp1159
g3
I801
ssS'ij5AugUe4lIU-sVVUEeaBw'
p1160
(dp1161
g3
I805
ssS'0aB3HDnv6htWoTHJfKChTA'
p1162
(dp1163
g3
I416
ssS'8A_8LrYfVYuDIASbe8BmUQ'
p1164
(dp1165
g3
I617
ssS'fZDPX_QQHRM_Y_aqGgW1ng'
p1166
(dp1167
g3
I619
ssS'bbameBpSa0-LNNco8RY94Q'
p1168
(dp1169
g3
I79
ssS'IkOaRADjz1YxUXpe7BNf4A'
p1170
(dp1171
g3
I451
ssS'zaZmcbxdNKpqAzzikjxFiA'
p1172
(dp1173
g3
I380
ssS'EwdeBntmjmx5rQWyxPazBQ'
p1174
(dp1175
g3
I504
ssS'LujcBO88gjY9wFa8vp66Lw'
p1176
(dp1177
g3
I910
ssS'w3JoT0gxtaRtLaGrE_GfLg'
p1178
(dp1179
g3
I26
ssS'YPWltJEObnOLHs_ypH942w'
p1180
(dp1181
g3
I238
ssS'qEeM8LCIjtXeRsVlric-vQ'
p1182
(dp1183
g3
I420
ssS'ax6T-EBDcfd_brkFTyh3TQ'
p1184
(dp1185
g3
I878
ssS'O14gmi3Qpstz1lQS0nLpLA'
p1186
(dp1187
g3
I160
ssS'lbg82t_mmEvlku3uVXn5TQ'
p1188
(dp1189
g3
I35
ssS'th2oEvukSKqKO7TSCCp-Ew'
p1190
(dp1191
g3
I572
ssS'IHgOMd26T8VEi1P26QNBCg'
p1192
(dp1193
g3
I398
ssS'iUJAeNJyM9o60oDL-Ne9tw'
p1194
(dp1195
g3
I756
ssS'yjgH3ijoNZlGXotsdzEC-A'
p1196
(dp1197
g3
I39
ssS'XIvhzABifFs3qtnYpgK0_w'
p1198
(dp1199
g3
I709
ssS'GiklBA05pta8UpXd6JR7oQ'
p1200
(dp1201
g3
I774
ssS'47VCrr83Tvtkp1FvDa0ftQ'
p1202
(dp1203
g3
I552
ssS'qb2Ss6Q-UAc5Krf0tnYs7A'
p1204
(dp1205
g3
I46
ssS'C1rHp3dmepNea7XiouwB6Q'
p1206
(dp1207
g3
I809
ssS'sFFYWQrW6o7rbfxMKEycig'
p1208
(dp1209
g3
I963
ssS'jifQQcGNRZYvHfeO2o4mTQ'
p1210
(dp1211
g3
I625
ssS'u0QC6SGfKbZwTg4FmkOXFA'
p1212
(dp1213
g3
I923
ssS'GLzK3PsBTGl-1ky3t4wFNQ'
p1214
(dp1215
g3
I934
ssS'9HHUNmBFHkh_N-dNAHGo5Q'
p1216
(dp1217
g3
I821
ssS'_THWnEpJp48u-ffNO8k8Uw'
p1218
(dp1219
g3
I843
ssS'H-luWqSxQC8gYxR-dXih8A'
p1220
(dp1221
g3
I759
ssS'TRn2YfGZtGPmH6vztt_tMg'
p1222
(dp1223
g3
I651
ssS'Uug6tmVc7AokYUUJnaBqig'
p1224
(dp1225
g3
I430
ssS'JkIl1w-jg2RVw5oQTKBaDQ'
p1226
(dp1227
g3
I718
ssS'TzG6-nMD0nh8gATt-ZaqMg'
p1228
(dp1229
g3
I732
ssS'29KJZQaq0I60dpzQbazT7A'
p1230
(dp1231
g3
I674
ssS'ygje_NM6iSOzAooDU2p8NQ'
p1232
(dp1233
g3
I62
ssS'Dy9fkstztJ8hpzXFhrpf2w'
p1234
(dp1235
g3
I788
ssS'gy5lnq--Dui9InYCnN3xxQ'
p1236
(dp1237
g3
I594
ssS'z6rwNBLsxABWGBocZwTf2Q'
p1238
(dp1239
g3
I172
ssS'zbVD7LHM0zurkPYEKbfZcQ'
p1240
(dp1241
g3
I464
ssS'VsSPcHeQBoY4J1uf9znDOQ'
p1242
(dp1243
g3
I633
ssS'PkD2PKJbNda35nIoG3p-4g'
p1244
(dp1245
g3
I360
ssS'atA_Z0L-9SYFMQK5o0fLfQ'
p1246
(dp1247
g3
I418
ssS'OAG68zj5RK_vo4Z5Bqj9nA'
p1248
(dp1249
g3
I201
ssS'ZJ67j5aOsEGT7_qzL7q-RQ'
p1250
(dp1251
g3
I613
ssS'8eSZ5VFUnFckouBgey0Rkw'
p1252
(dp1253
g3
I51
ssS'4Hx2VPfIid_C3YOjuXJflw'
p1254
(dp1255
g3
I402
ssS'61JQj-OEwWTEdbr1K4wbBw'
p1256
(dp1257
g3
I188
ssS'8pX02htr3XRUO60OQl7y5g'
p1258
(dp1259
g3
I564
ssS'PUU_XdrfMh9z2RyO6oilhA'
p1260
(dp1261
g3
I31
ssS'wNq0vudy0Q6mwiccuAAWBg'
p1262
(dp1263
g3
I510
ssS'_8eGLKjVpGK_mxwM8mlOgA'
p1264
(dp1265
g3
I707
ssS'S_yR0vO-l9GPIDPXtD8dqQ'
p1266
(dp1267
g3
I829
ssS'32Dfj21nQ-xTDwfCJxZvhg'
p1268
(dp1269
g3
I230
ssS'ilSpGCdSqi9PVV_KfC4xrQ'
p1270
(dp1271
g3
I113
ssS'IE1K1W8XbfYpVIKbnE1ePg'
p1272
(dp1273
g3
I851
ssS'vHJirTa4d4eVAL7torgArg'
p1274
(dp1275
g3
I520
ssS'H043-7y6dUj0XZKGsfkUIg'
p1276
(dp1277
g3
I749
ssS's6aZyQTXX4EzQW_Sacx2AA'
p1278
(dp1279
g3
I665
ssS'flAmUV9Om9aQIggnueySqA'
p1280
(dp1281
g3
I562
ssS'pxD7uZarYMDtdTY_pLqDAg'
p1282
(dp1283
g3
I684
ssS'GZdYbAOHpRJLZ8Eu0K2bTQ'
p1284
(dp1285
g3
I49
ssS'SKl0yv0YlbuNmofxvfjCAA'
p1286
(dp1287
g3
I330
ssS'ampcmISle2-2_DzQqELY3A'
p1288
(dp1289
g3
I408
ssS'EMZ5PxOcx55uZYOfVCk1tQ'
p1290
(dp1291
g3
I7
ssS'bBMVAQ7Qilmb2a8vw2HqFQ'
p1292
(dp1293
g3
I206
ssS'_UuTDu3lpnIqSh04S6A1mA'
p1294
(dp1295
g3
I232
ssS'RwuMQEsnpT1hAoFPwTws7A'
p1296
(dp1297
g3
I853
ssS'uCQc9rG__EHqCl4HgwgeSw'
p1298
(dp1299
g3
I638
ssS'JzevNDgiwigNTGPsO5r84A'
p1300
(dp1301
g3
I813
ssS'YvQ-Qqf-iJFjjRl9jm5qYw'
p1302
(dp1303
g3
I900
ssS'MuwDExE-YImi9eySTTPanQ'
p1304
(dp1305
g3
I990
ssS'Ccj06KzPlHuw8QbnfsLP7Q'
p1306
(dp1307
g3
I138
ssS'joEN2Mx6n2FNzsIrR0CpjQ'
p1308
(dp1309
g3
I961
ssS'Z04gx9AuJz3FY04_xYNfHg'
p1310
(dp1311
g3
I465
ssS'61ruhidSWwHJfr8u9uUHYw'
p1312
(dp1313
g3
I854
ssS'QR9XSDWWBDJGaBoRRxz6TQ'
p1314
(dp1315
g3
I237
ssS'NGjsV8y5MvUtZLeToqwDCw'
p1316
(dp1317
g3
I283
ssS'xAFks90fpabaEAp-qQKwiQ'
p1318
(dp1319
g3
I683
ssS'Ov9oOxOibkjl4BYZoyvG6Q'
p1320
(dp1321
g3
I185
ssS'Ut6ZnfCCtz6JWInwzjdk7g'
p1322
(dp1323
g3
I944
ssS'_QYiHZolZjP-eu031neAmA'
p1324
(dp1325
g3
I713
ssS'rRX4t7fRt-JRoXdoC_Ca9w'
p1326
(dp1327
g3
I137
ssS'u5HyOu-HZg4Tl3MFNUa6aQ'
p1328
(dp1329
g3
I438
ssS'7aL6XWBInqZxDY8otQwWFw'
p1330
(dp1331
g3
I269
ssS'F_W6fi-E7-m-pOrwIXZ8bw'
p1332
(dp1333
g3
I661
ssS'RybmOh3bUwZaCeGqe2WMxA'
p1334
(dp1335
g3
I350
ssS'Y8qbeE1E6chGtorUpQGZ3Q'
p1336
(dp1337
g3
I761
ssS'tBF1cz1UCDdjilymCBgJAQ'
p1338
(dp1339
g3
I428
ssS'Vjb2xXeReJPVmUkjG9cHzA'
p1340
(dp1341
g3
I73
ssS'VNEqps27mp8-gTqTfzg7yw'
p1342
(dp1343
g3
I327
ssS'UZNeMvwshIjxIUunnDPZOg'
p1344
(dp1345
g3
I656
ssS'e9Q9nFvflhDDS7sSRPr-ug'
p1346
(dp1347
g3
I676
ssS'PUiIoewaOOgjcEMkjzB65A'
p1348
(dp1349
g3
I310
ssS'HslReRAnURM1qrOTT0kZ5w'
p1350
(dp1351
g3
I892
ssS'd3t42nPYD5XJK9fhchsMvg'
p1352
(dp1353
g3
I361
ssS'i_EGVIwYDohBdYd4maR0IA'
p1354
(dp1355
g3
I885
ssS'ZybVPCEwRbuTVNlX6FRjow'
p1356
(dp1357
g3
I839
ssS'1fr8b_rv3xSzox6sN0mJ1A'
p1358
(dp1359
g3
I272
ssS'Wfl20o8-0ZLzIvnP548utw'
p1360
(dp1361
g3
I642
ssS'59iCBwghotM7yQaff1bzQw'
p1362
(dp1363
g3
I333
ssS'uFOYBSZV2DZhNNPEePWbUQ'
p1364
(dp1365
g3
I703
ssS'WmI7NMsreed8hsfYzf1haA'
p1366
(dp1367
g3
I341
ssS'acKvrmcn2Mw6UU_XrDZDrA'
p1368
(dp1369
g3
I154
ssS'zGlZnBWlR-OCqSx5V2E0eQ'
p1370
(dp1371
g3
I812
ssS'JJnS30Cjv5CBa1JXyZU5yw'
p1372
(dp1373
g3
I319
ssS'UJc2TTw6ZXnPX32-2uPrTQ'
p1374
(dp1375
g3
I358
ssS'rZrJpu5lUEINCciWEB8i-g'
p1376
(dp1377
g3
I289
ssS'3WNOVNlsAqHodHv8pGS-kA'
p1378
(dp1379
g3
I63
ssS'dnAP29UAGs_MIPGXFJUlGw'
p1380
(dp1381
g3
I493
ssS'vXcKVMyHZCvFP1qXbunU_A'
p1382
(dp1383
g3
I90
ssS'GZFa2_r7dYRNm8edaQ1qMw'
p1384
(dp1385
g3
I299
ssS'Gq7xnJ8Ws1RKMS8EdL6B_A'
p1386
(dp1387
g3
I917
ssS'rd2OHNoLk4Ua8WEMvtfPyQ'
p1388
(dp1389
g3
I738
ssS'ZmSKVX7q0GVXxmVFUcqGDQ'
p1390
(dp1391
g3
I313
ssS'iCFZ6zZkq1ok1oQSX6TArw'
p1392
(dp1393
g3
I721
ssS'YKT1b17r_kdW7ZJSkY__cQ'
p1394
(dp1395
g3
I146
ssS'L3q4JMskniKXf4Az04KNWg'
p1396
(dp1397
g3
I655
ssS'h3Uae0FkcokLXSp7Y0KG2g'
p1398
(dp1399
g3
I800
ssS'c8NnPv3FF9BnhDE_OdF_EA'
p1400
(dp1401
g3
I16
ssS'b5CMWOxjySO8YPSBpL7Emg'
p1402
(dp1403
g3
I424
ssS'Fy6fPgz7PUqrzF5UYyZVUA'
p1404
(dp1405
g3
I458
ssS'JFM0o9QJSvdAmXohjYqRuw'
p1406
(dp1407
g3
I553
ssS'xUDUNKyclCLjwVwsBN0ZBw'
p1408
(dp1409
g3
I226
ssS'2nt_3Ph1XJ1owxb71uemrg'
p1410
(dp1411
g3
I547
ssS'3vUwCeogENw0apYpRof4ng'
p1412
(dp1413
g3
I770
ssS'zcDdYtVnnKs8NXpqYTxhtw'
p1414
(dp1415
g3
I215
ssS'2FlAL0m8qbaVkEIo7VyUbg'
p1416
(dp1417
g3
I433
ssS'JFig_cg4uevba9oBut3VDw'
p1418
(dp1419
g3
I831
ssS'LzJiT-EHw-Px2MbOTl_kaw'
p1420
(dp1421
g3
I658
ssS'qNGzYk7vDEy0wiGp_KrnWQ'
p1422
(dp1423
g3
I5
ssS'zSJLMv2mv2REr3NdQFo4qg'
p1424
(dp1425
g3
I623
ssS'sVpPejQgdPZGBR0qk6PPHw'
p1426
(dp1427
g3
I733
ssS'IdT_4_JUVhk1Is5iBg74ig'
p1428
(dp1429
g3
I918
ssS'utt_kWh2FNijZVi1mv5Qug'
p1430
(dp1431
g3
I180
ssS'TlEfizHjEaVlLpYt5oKZRg'
p1432
(dp1433
g3
I988
ssS'ncti-bFeJrss1Omk83IWsw'
p1434
(dp1435
g3
I486
ssS'spJUPXI7QaIctU0FO5c42w'
p1436
(dp1437
g3
I250
ssS'YqNK5LKJBs3Lx8EtEt71cA'
p1438
(dp1439
g3
I439
ssS'NdDJxfags2s-pxndkaOIbQ'
p1440
(dp1441
g3
I528
ssS'_9t3EWCM8eMd9lGdV6M8lA'
p1442
(dp1443
g3
I751
ssS'wzmdB-xjGi4s8YTJvau9qQ'
p1444
(dp1445
g3
I555
ssS'sMBdzt8FE_oaqIzYRAwWZw'
p1446
(dp1447
g3
I726
ssS'f4CExFYr3GTMSBD4BccDQw'
p1448
(dp1449
g3
I795
ssS'xg0dbkQ6ds0AUsbmjUUfsw'
p1450
(dp1451
g3
I606
ssS'hFG1Lira7tL_PElq6bdAAw'
p1452
(dp1453
g3
I150
ssS'U1LADLpQXzq857N3nwocaA'
p1454
(dp1455
g3
I498
ssS'y3Rwp-FQqqwH9DkeyvSCBg'
p1456
(dp1457
g3
I431
ssS'euB99cGZmezCOMcsIj0Zyw'
p1458
(dp1459
g3
I95
ssS'2KhwZF0LGVJ1Ii6tGX8vbA'
p1460
(dp1461
g3
I882
ssS'gsMVXAI9su3B26Fd4vyyRQ'
p1462
(dp1463
g3
I652
ssS'7A06E6wvxuejS0C-4DQ5hA'
p1464
(dp1465
g3
I303
ssS'km78VL9P0l4g2ytqXXKIwg'
p1466
(dp1467
g3
I548
ssS'Ri7q4U9D8aUhJw4rSIs-WA'
p1468
(dp1469
g3
I389
ssS'9cujZ_eG6W_W4KH9oZtsIA'
p1470
(dp1471
g3
I992
ssS'kobS24ddJTqfGJo4isnAPA'
p1472
(dp1473
g3
I3
ssS'MTuaOFK38-2khz9iOguhrA'
p1474
(dp1475
g3
I411
ssS'4awtPy_a90mciUxOVQaENA'
p1476
(dp1477
g3
I381
ssS'DpnOBUvr0jluF8-VqjDT-A'
p1478
(dp1479
g3
I249
ssS'TgruzWBuq_Z-0_fUdkWqYg'
p1480
(dp1481
g3
I442
ssS'S0TOvCVc6hK4U4AqI5nytg'
p1482
(dp1483
g3
I989
ssS'yMyi41laTTfuPtrDu5nPiA'
p1484
(dp1485
g3
I484
ssS'TwSpo42Ww9NttesQyiwjZQ'
p1486
(dp1487
g3
I869
ssS'Pr2bD8IxmJPOt3MPcwJbJA'
p1488
(dp1489
g3
I682
ssS'OMxzZWCeB10Ex7I_YvE4Dw'
p1490
(dp1491
g3
I300
ssS'OcIOOVK7nASLhi-7iGIeaA'
p1492
(dp1493
g3
I159
ssS'M33iWvnEyxjWTSJfmz4H4A'
p1494
(dp1495
g3
I176
ssS'I3hHGdrXiu9e-uixpZRHyw'
p1496
(dp1497
g3
I597
ssS'Shwm2v92ac1Etasjdcc5KQ'
p1498
(dp1499
g3
I806
ssS'Eaf8rp_tMi4rRo_WsIP-EA'
p1500
(dp1501
g3
I78
ssS'6__evdSzmJNAvfJjRhFH8A'
p1502
(dp1503
g3
I223
ssS'i3MtOh69gdoESauFYyS0tA'
p1504
(dp1505
g3
I171
ssS'7tgY7rbX9m86T0b_-CneWA'
p1506
(dp1507
g3
I527
ssS'WPIaXxFxKbzQR0nF8qLGKQ'
p1508
(dp1509
g3
I556
ssS'EC6mxgAmKmCo4aGOjWRECg'
p1510
(dp1511
g3
I128
ssS'aHGshMVj4B1k8KdEdljpiQ'
p1512
(dp1513
g3
I275
ssS'O7iUEsxiCWnH1TLWyG2Y7g'
p1514
(dp1515
g3
I386
ssS'Sult01xfWfWQsGAVSx-jbQ'
p1516
(dp1517
g3
I30
ssS'n8_MDJ4d1RuuRt17Hf8AKw'
p1518
(dp1519
g3
I817
ssS'I_Y47QFSdnZwZuN6IygWwQ'
p1520
(dp1521
g3
I941
ssS'8GEVI2ed2dTW4_qYjYLfGA'
p1522
(dp1523
g3
I112
ssS'3PleJJEDyGLIWqaW7JlTyQ'
p1524
(dp1525
g3
I263
ssS'BiZvuNKi0bs_YwttHhhq4w'
p1526
(dp1527
g3
I163
ssS'PuoIhafgpVOT-hqG2AacoQ'
p1528
(dp1529
g3
I699
ssS'KKaDA0dzUovFuHp3QC4UGw'
p1530
(dp1531
g3
I194
ssS'w1LjSa5wMexRIQ-82LKWmQ'
p1532
(dp1533
g3
I225
ssS'ZnpicBq5u3eOpR4yJMNk_w'
p1534
(dp1535
g3
I437
ssS'dlco_HADLtoLHjiwil1Rdw'
p1536
(dp1537
g3
I694
ssS'lGwXSDG5pOPc1F-lOXmBSA'
p1538
(dp1539
g3
I595
ssS'oGzab3FQ5D8K2bp_2ESigQ'
p1540
(dp1541
g3
I930
ssS'NeoMKRjO1DEZUtbiNpSYDg'
p1542
(dp1543
g3
I593
ssS'FxxmuUQW2GJkFJ_DZzKujg'
p1544
(dp1545
g3
I781
ssS'31jTKS9Rn1hoATmstSG3cQ'
p1546
(dp1547
g3
I644
ssS'HErv4zp1mxRf0Bl0z1Un3Q'
p1548
(dp1549
g3
I435
ssS'DxrLRzW1RlA00sjVVoe2UQ'
p1550
(dp1551
g3
I58
ssS'ezplVB5GN2pW4nyE1eMP_A'
p1552
(dp1553
g3
I512
ssS'aRFzf3hOKwgyQ5MtsJg-fQ'
p1554
(dp1555
g3
I85
ssS'YJyCUbX2cTLnwyJ0iC9g_A'
p1556
(dp1557
g3
I491
ssS'-4OUnNTAdvgV4tHdsARcvw'
p1558
(dp1559
g3
I921
ssS'N6CCk4JaGoXTHteqYCKcVg'
p1560
(dp1561
g3
I914
ssS'MYx6BtUSoCay8TIZH855Iw'
p1562
(dp1563
g3
I241
ssS'jzJ-f4cflYLlJsZLjv9PNg'
p1564
(dp1565
g3
I169
ssS'vvoovZCLa3fIuqBHVqpjoA'
p1566
(dp1567
g3
I558
ssS'sf8ZPI3fBKv8skv0ccMinQ'
p1568
(dp1569
g3
I936
ssS'AGIKTyfMKFz1Hj7rw0Oqbw'
p1570
(dp1571
g3
I290
ssS'4OgI2vFREMSJjHIKtCM5Jg'
p1572
(dp1573
g3
I833
ssS'C-ovlyejzMMFk2tILH10Sw'
p1574
(dp1575
g3
I367
ssS'qklF6QU-bi4Y4Bt4g6Sv8A'
p1576
(dp1577
g3
I228
ssS'aa90wsgb_T20EfSzTIycAw'
p1578
(dp1579
g3
I454
ssS'bP_Htkayh6Z12cjiOiDRyQ'
p1580
(dp1581
g3
I886
ssS'i4GXUZ4k1AeQaWAr3Z2zIw'
p1582
(dp1583
g3
I6
ssS'8Fsd4yro0ymNLkkX0QyUOw'
p1584
(dp1585
g3
I320
ssS'iR8iTaCOjQCM-JG4qf23NQ'
p1586
(dp1587
g3
I253
ssS'qUj0Ggp1a2sw6OEWfEn4Qg'
p1588
(dp1589
g3
I359
ssS'vP770ARzgDteRSFnfzSHyw'
p1590
(dp1591
g3
I288
ssS'--hWC2FYuvaItr5-_Hp8Mg'
p1592
(dp1593
g3
I653
ssS'h5CPzNRBqby1ENRnvZVAFg'
p1594
(dp1595
g3
I516
ssS'4wB03cyIrbf_jLfodNFZoQ'
p1596
(dp1597
g3
I179
ssS'NnI6oGvwhN8CmEYQSzxBjw'
p1598
(dp1599
g3
I746
ssS'hW2XQMGHy5_TW7dnijZR6Q'
p1600
(dp1601
g3
I753
ssS's0JvVpNcu1KacfWXboVuvw'
p1602
(dp1603
g3
I611
ssS'bb1rbtX-PzSYpb57isi9Ow'
p1604
(dp1605
g3
I834
ssS'tjAz4KNAQSNaednU4WWaeg'
p1606
(dp1607
g3
I183
ssS'_uTNISvvdkO4ymOmkuNMVg'
p1608
(dp1609
g3
I482
ssS'AHevZXoCd7vfnQqRhe2diA'
p1610
(dp1611
g3
I865
ssS'P-53BvG3ns-9W7CQWpG58w'
p1612
(dp1613
g3
I337
ssS'ewLMGomK1Jhs5OoM9SviHw'
p1614
(dp1615
g3
I836
ssS'8w23JX96mElm3ViwtS_WKQ'
p1616
(dp1617
g3
I509
ssS'J6tbGy-l8aBlfwM6I20g4Q'
p1618
(dp1619
g3
I920
ssS'CDhv0TaqqQSoB-9zSZXTkg'
p1620
(dp1621
g3
I307
ssS'qqtmFGhyyHc37coT4qJxaw'
p1622
(dp1623
g3
I765
ssS'o6gLlVTP_Htm2kHQvxgqPw'
p1624
(dp1625
g3
I385
ssS'l0TaAPez3l2gbvEY97i2Dw'
p1626
(dp1627
g3
I500
ssS'nv0S1XWvOtaOp2Xt1JMerA'
p1628
(dp1629
g3
I573
ssS'msJa3Q9y5JsJQJbhkvGJQA'
p1630
(dp1631
g3
I637
ssS'ZI8Frl1XdxlX3JNWkCc-xA'
p1632
(dp1633
g3
I924
ssS'LB7HoDg61yWP2CjrueeJUQ'
p1634
(dp1635
g3
I641
ssS'1Pwd59gWJ7NVzZGcQS9H1g'
p1636
(dp1637
g3
I203
ssS'3dHAHbMesWcpET-D0zs-LQ'
p1638
(dp1639
g3
I850
ssS'F5NvOP5YeKetvkYo1W4t3A'
p1640
(dp1641
g3
I197
ssS'XGpWPyISxLAimmG8PcWHCg'
p1642
(dp1643
g3
I786
ssS'BZbyBXH5DzToc6cwXxxY0Q'
p1644
(dp1645
g3
I234
ssS'ZQduSjrBcIYjO1d8IaXxVw'
p1646
(dp1647
g3
I36
ssS'n5s_x99cq1iZH1ktBQmeUQ'
p1648
(dp1649
g3
I754
ssS'Sb6btnYPIh1TTi8dz3psvw'
p1650
(dp1651
g3
I568
ssS'ZWkFglH74wxqNep5A2ZQtA'
p1652
(dp1653
g3
I577
ssS'Qs-v7jcKjmFwR--fFLOnDA'
p1654
(dp1655
g3
I870
ssS'byq6n6zQdmigmggP_5pzBw'
p1656
(dp1657
g3
I607
ssS'yGpKBraIyHM8kaNlNVKVgA'
p1658
(dp1659
g3
I598
ssS'S_7IppbeHop2yA5E8lxecQ'
p1660
(dp1661
g3
I475
ssS'I-sHax6SY-Pqc7xfbHnUyw'
p1662
(dp1663
g3
I599
ssS'xRKy7-nMYSoljyEqsyr5ow'
p1664
(dp1665
g3
I100
ssS'6BhR4jomGqTJiZ_vnwAXzQ'
p1666
(dp1667
g3
I959
ssS'g-fXziS-RPwQSKG3xdhOAA'
p1668
(dp1669
g3
I33
ssS'pt4MBYL_cyDJKJJC6YanmA'
p1670
(dp1671
g3
I116
ssS'wcYDstyQzC6EHaTicqdE6w'
p1672
(dp1673
g3
I702
ssS'_LW9AOCRbMp89uCqzkz9-w'
p1674
(dp1675
g3
I84
ssS'ckLJW7vcQsIk4Fc3ipXxgg'
p1676
(dp1677
g3
I80
ssS'DkAbda5EVEp3YBRIyrCjMQ'
p1678
(dp1679
g3
I212
ssS'-cV9EY-f8OQKLP1-eiKvIw'
p1680
(dp1681
g3
I434
ssS'DSd_NBxTGJdvDIVf58fneQ'
p1682
(dp1683
g3
I916
ssS'u1_UVRfA-_0vuqcAy5CkFQ'
p1684
(dp1685
g3
I666
ssS'-P9gI1stbFvyuPUKE-dq0g'
p1686
(dp1687
g3
I195
ssS'aobFR2h3J5WKDyAM0ZqPAA'
p1688
(dp1689
g3
I43
ssS'WA29Msp_4-fM280R-_aLHA'
p1690
(dp1691
g3
I819
ssS'Nl8kUgXO4zbnuWa7hm_aWA'
p1692
(dp1693
g3
I147
ssS'EROQwdBzr2gHMOTSeERkmQ'
p1694
(dp1695
g3
I2
ssS'7dwdRm4eu7CWtf_Eqit_dg'
p1696
(dp1697
g3
I776
ssS'bB_rTyDD-ObbjstwxsVfPA'
p1698
(dp1699
g3
I239
ssS'PX5HXOpSYE-eWOBeZHVUHw'
p1700
(dp1701
g3
I590
ssS'F04PZuHKAm_JVFuHpq_TOQ'
p1702
(dp1703
g3
I927
ssS'UX8jSTQXovTb0WIifYgIJw'
p1704
(dp1705
g3
I982
ssS'3VcjehlwzA8qweDNq9KVFg'
p1706
(dp1707
g3
I406
ssS'8bFYurkTsTw_66YydugbfQ'
p1708
(dp1709
g3
I872
ssS'iW1ltQqq4GWAErobLiOv9w'
p1710
(dp1711
g3
I196
ssS'Kfq5v2funG56HKTvivvVPA'
p1712
(dp1713
g3
I499
ssS'DcQERx2GW3CB6cfP_4xblw'
p1714
(dp1715
g3
I351
ssS'QLPuZVcAUIvsWgTQgQK49Q'
p1716
(dp1717
g3
I670
ssS'ELFrdF9n7Av2s9fjG3jzpg'
p1718
(dp1719
g3
I999
ssS'FL1xj5qKFZkU5GXVBj5TUA'
p1720
(dp1721
g3
I302
ssS'LYaWXTl86U3tY9lQ7gJa5A'
p1722
(dp1723
g3
I570
ssS'BkmIUgwHg_5TCkJbdMEiJQ'
p1724
(dp1725
g3
I27
ssS'SY34qO7Ts7sT17GehzwpXg'
p1726
(dp1727
g3
I803
ssS'b40mTomc2afgsb8Pm5ZDpQ'
p1728
(dp1729
g3
I362
ssS'-FkQza9zDG0ugRSM4FLbHQ'
p1730
(dp1731
g3
I889
ssS'sYGCmAr5HWknrMoihaLJ8g'
p1732
(dp1733
g3
I610
ssS'zYPMRtqvIjtpmq9FIP687Q'
p1734
(dp1735
g3
I671
ssS'jacXbTBeK8sQ-4VoQXyD5Q'
p1736
(dp1737
g3
I532
ssS'345n2V8kw6BGptZI-fJm0g'
p1738
(dp1739
g3
I426
ssS'_TS1Adf9IipEwOkm7b19Og'
p1740
(dp1741
g3
I538
ssS't-R53EkoNpsAFy8JPnGRpg'
p1742
(dp1743
g3
I664
ssS'nK7rS13FhM3ARYBP2prOqA'
p1744
(dp1745
g3
I863
ssS'RG2EQBNaVm4tCCS-fb1iUw'
p1746
(dp1747
g3
I604
ssS'siH7vPHHz1E4Bsx8dfKPcA'
p1748
(dp1749
g3
I752
ssS'pPnkHTdw6GnMR8wdkT9-eA'
p1750
(dp1751
g3
I731
ssS'RgNJbf8_oAbeRM7_yv5VmA'
p1752
(dp1753
g3
I317
ssS'd2emhDSbwKf3VLTljD4pTg'
p1754
(dp1755
g3
I120
ssS'vyiHjaQlESGcXgEfEmH4ow'
p1756
(dp1757
g3
I797
ssS'5mmBh3b2GxChYFufmyYsVA'
p1758
(dp1759
g3
I461
ssS'DMZX22YhKqIXTXUJH233CA'
p1760
(dp1761
g3
I60
ssS'4m37nGIak2A_OfNO0PO5JA'
p1762
(dp1763
g3
I964
ssS'C1NCPmIP-sXfYm5Ywhjj9A'
p1764
(dp1765
g3
I647
ssS'MhstQhAnGqyAAFaujPYAFg'
p1766
(dp1767
g3
I893
ssS'3fAV8Bz_a-OIJwn_hiocew'
p1768
(dp1769
g3
I899
ssS'1VcKKccWPLsNOhyYGMkWuA'
p1770
(dp1771
g3
I688
ssS'jCXrEQhkXe5h3dgu2qNxzQ'
p1772
(dp1773
g3
I887
ssS'A_7ZoK8AfLEuJ7e_DrjunQ'
p1774
(dp1775
g3
I422
ssS'PXIlRKOmcGIEJ_b-VZZOQg'
p1776
(dp1777
g3
I50
ssS'kWLz79iD54o1cEqomx-qlw'
p1778
(dp1779
g3
I139
ssS'RUUVLiB4A0DPSBoTIIAaBA'
p1780
(dp1781
g3
I13
ssS'V_hVEFJp1-969ZZO1y0Y5w'
p1782
(dp1783
g3
I52
ssS'SWUxYaStkCB-w1k9r2uGSw'
p1784
(dp1785
g3
I252
ssS'0IRaNnqJUp06E4uHORiPew'
p1786
(dp1787
g3
I932
ssS'ZG9KRhVau63xLkcFWyXN8w'
p1788
(dp1789
g3
I741
ssS'vGj7Dmd3aSNxmfraIQ7THg'
p1790
(dp1791
g3
I207
ssS'MIFdtqqbw3bw4YRf88GFQQ'
p1792
(dp1793
g3
I134
ssS'bsYj9aqoefsjJmCIiM56-w'
p1794
(dp1795
g3
I471
ssS'O9lc2uFuXDrAnDEbtogNhA'
p1796
(dp1797
g3
I905
ssS'_FbZ1gXZL349iiz5D8gz2Q'
p1798
(dp1799
g3
I409
ssS'_vrnkIhHRcVKDzLp7Q6KRA'
p1800
(dp1801
g3
I119
ssS'3Oojpw4mEDiz0ohnP9dvjA'
p1802
(dp1803
g3
I601
ssS'IlvcS5jz3queW99F6q--6g'
p1804
(dp1805
g3
I135
ssS'toTQRAGwEtW67zc4S5K_Ug'
p1806
(dp1807
g3
I903
ssS'umk8q8fdxe19uFFnqjy7MA'
p1808
(dp1809
g3
I974
ssS'oxMHhRJoPQFnJ1mCaePxLA'
p1810
(dp1811
g3
I66
ssS'uQlQmBcl4tOsnmX6cKjjpQ'
p1812
(dp1813
g3
I995
ssS's-t5VMN7qV5ZVL8Wim_7sQ'
p1814
(dp1815
g3
I109
ssS'vWwByo-lFdHzLG1UF8nRwg'
p1816
(dp1817
g3
I787
ssS'FcDddrQtLXyyABI8jg_Nxw'
p1818
(dp1819
g3
I266
ssS'sDyaN_3DEZyhnJPUFIwoEg'
p1820
(dp1821
g3
I309
ssS'Y7Jxglm9zeHipx8zrhULiA'
p1822
(dp1823
g3
I335
ssS'10XWaraspuADGFmbKsbnxQ'
p1824
(dp1825
g3
I208
ssS'0pJQ29l27PzVKEqMqedRiw'
p1826
(dp1827
g3
I524
ssS'PsIWPkHHFWSoujVsIzFcnw'
p1828
(dp1829
g3
I224
ssS'Nsy2T6FSV7nsLWCKRYSldg'
p1830
(dp1831
g3
I349
ssS'4o7r-QSYhOkxpxRMqpXcCg'
p1832
(dp1833
g3
I581
ssS'NhtTzeN16h1NnslMT2qgNA'
p1834
(dp1835
g3
I913
ssS'CmckNGXUsQ4Pkx-B-H8jVg'
p1836
(dp1837
g3
I628
ssS'TEDWIxVruH-t_kZ_s54V7g'
p1838
(dp1839
g3
I384
ssS'C1kS98KgRKB08yflIEq7_A'
p1840
(dp1841
g3
I149
ssS'5VfRsRberplylZzKtwxJYQ'
p1842
(dp1843
g3
I635
ssS'EehnHRG06iGmahgtYgrgNQ'
p1844
(dp1845
g3
I297
ssS'iNe3R7hixmpoFXdAICYF_w'
p1846
(dp1847
g3
I531
ssS'4wLsIJ1Skm691UlKxnmvrw'
p1848
(dp1849
g3
I773
ssS'Py-iGXvODnHodfVXWmpaTg'
p1850
(dp1851
g3
I450
ssS'M7AH16ag_GIYuHN51Rw-oA'
p1852
(dp1853
g3
I794
ssS'NksiUEnf7cP77zTnz-7lGg'
p1854
(dp1855
g3
I65
ssS'm7j9e53ycZxjWYBD7rZVng'
p1856
(dp1857
g3
I318
ssS'9h7pVbpq13JwMUNWHIU0PA'
p1858
(dp1859
g3
I901
ssS'zMhkzu9VXFULKQ8YCCsDVQ'
p1860
(dp1861
g3
I216
ssS'uEa6oypnFtwiJcFFFOsIBQ'
p1862
(dp1863
g3
I880
ssS'i36EVtliUqbhpm65K7lREA'
p1864
(dp1865
g3
I734
ssS'6J4Oh-Lq2loLV5apkFJwTg'
p1866
(dp1867
g3
I511
ssS'e7rJa4jefDcC5xTQoVSQxg'
p1868
(dp1869
g3
I943
ssS'LYy11dEvnYQoq3CgxqQaXw'
p1870
(dp1871
g3
I675
ssS'lOSZu5lM0sQxrBQxb2qTiw'
p1872
(dp1873
g3
I267
ssS'wqI1xWa-oRD_v1xj9tHl7w'
p1874
(dp1875
g3
I554
ssS'En49XRQ7prj-dUfavo3v9w'
p1876
(dp1877
g3
I717
ssS'rZF3xgKdanZG1yfJdPHBJw'
p1878
(dp1879
g3
I689
ssS'eCrfN1SoYk6jRENHzg4uJw'
p1880
(dp1881
g3
I329
ssS'VJZJ0_EHtqi46pWxr7XPbQ'
p1882
(dp1883
g3
I83
ssS'HskXoBXl3xbNxy-ICZIHTA'
p1884
(dp1885
g3
I53
ssS'TGtKOPx5EPx5vmEc4IO7EA'
p1886
(dp1887
g3
I166
ssS'zHbaFzHNX1Nb-SAm62FVQg'
p1888
(dp1889
g3
I832
ssS'zJlzNkIngaIV_crtUKdykQ'
p1890
(dp1891
g3
I987
ssS'O2sVDiZ4q3vIikQEF7Gfbg'
p1892
(dp1893
g3
I799
ssS'tRBC8zo48KbWIJn_hEG4mA'
p1894
(dp1895
g3
I541
ssS'siQpkCEFKFmROKjF3jfAQg'
p1896
(dp1897
g3
I767
ssS'OznFf7XJZWdyxoAu0xfB-g'
p1898
(dp1899
g3
I616
ssS'lc0c0BjedYRi3TPWm_iQQw'
p1900
(dp1901
g3
I956
ssS'I84eZw1UfbivyxaqxP1NQg'
p1902
(dp1903
g3
I48
ssS'4ce55R4Wz8BLyVd-d_PJdA'
p1904
(dp1905
g3
I246
ssS'dDMF8e7XVQI8HVrBzCMbRQ'
p1906
(dp1907
g3
I142
ssS'sU4HhkEJwZkDJb8nFfuDTw'
p1908
(dp1909
g3
I70
ssS'2imIkuga4z0nMOZpIt2LZw'
p1910
(dp1911
g3
I646
ssS'O6thIDr38Ys9N_C2x13BlA'
p1912
(dp1913
g3
I492
ssS'0Ov1O2Gd0dwjkSaj5NJbhg'
p1914
(dp1915
g3
I627
ssS'sk6g1G7W58DG-azdWfaWYg'
p1916
(dp1917
g3
I357
ssS'Dc_vk-Slts-ycRU-PAYSPw'
p1918
(dp1919
g3
I291
ssS'lx1zT6DOck6Ww8t11ivUdA'
p1920
(dp1921
g3
I997
ssS'yZ15IUmA57pmubcSmvVPtA'
p1922
(dp1923
g3
I325
ssS'RR8fvMrIErbYGpKvBgIlgA'
p1924
(dp1925
g3
I304
ssS'p-yeuvqFTzkPLwjOfB5EAQ'
p1926
(dp1927
g3
I519
ssS'u-KVMGXwkeOhZqxzi8UmOQ'
p1928
(dp1929
g3
I165
ssS'wEMn5U0mlTp3Td5n2ZgwKQ'
p1930
(dp1931
g3
I846
ssS'nak08EwKOvVKx-Gx44WgYQ'
p1932
(dp1933
g3
I602
ssS'91Whn2Iaq-pfTiGFEc33nw'
p1934
(dp1935
g3
I204
ssS'-fJTGQSDtZJlXbxnYCLv4Q'
p1936
(dp1937
g3
I922
ssS'oueioQ4Sl4NpCpVoSVyR1A'
p1938
(dp1939
g3
I864
ssS'gHi13kKa_uee9EShpahJxg'
p1940
(dp1941
g3
I763
ssS'Pn1H5qHdisZMzsBbMR6KGA'
p1942
(dp1943
g3
I769
ssS'jfi_bkqZRgUCP-erRjWtdw'
p1944
(dp1945
g3
I719
ssS'FmQtYjm0BgQCyB3AQzIOqA'
p1946
(dp1947
g3
I315
ssS'0gYzWCIV3aNI8qwlN-u-Nw'
p1948
(dp1949
g3
I256
ssS'TSddl6XbLxXwQBpvxoTjug'
p1950
(dp1951
g3
I640
ssS'APtQS0oE_OM-Np5x0szr4A'
p1952
(dp1953
g3
I960
ssS'28mNjM4cg0ZzOrsib5L64g'
p1954
(dp1955
g3
I254
ssS'SxMvnI3L-AGtePcc8Yp_uw'
p1956
(dp1957
g3
I883
ssS'BSwRuQgl-mbo7ZiOUBbGJQ'
p1958
(dp1959
g3
I227
ssS'yZaTk4kf6ey6slQLTubnwg'
p1960
(dp1961
g3
I331
ssS'UhgUFf0U0If5KTpcRyF5Zg'
p1962
(dp1963
g3
I59
ssS'uLCJFWn5aDx0R4AEzojsiQ'
p1964
(dp1965
g3
I630
ssS'5fiC7aSgkqzGX7aN0JA3QQ'
p1966
(dp1967
g3
I783
ssS'Srg61PtCODuVw5LHVq7pJg'
p1968
(dp1969
g3
I940
ssS'I8DE1XRGHVVjThZk_9CFww'
p1970
(dp1971
g3
I99
ssS'v-vzPIkEGPs1FYbwtQJCaQ'
p1972
(dp1973
g3
I706
ssS'kN5mxDkghXIyhHW5zBOF4g'
p1974
(dp1975
g3
I446
ssS'Cy0AqjJ1dYFl_xoiEdV2Uw'
p1976
(dp1977
g3
I231
ssS'RT6sRtEXqk1_NHaQyo3n-Q'
p1978
(dp1979
g3
I481
ssS'G_VAoNiiJYu3lilyxZn0bA'
p1980
(dp1981
g3
I912
ssS'VJ1bBbBffDmWZLzThjpKug'
p1982
(dp1983
g3
I588
ssS'ZuGqr_UigjShS9j-moVP8w'
p1984
(dp1985
g3
I790
ssS'ZKXMg-8CeIUO1LY9IrtQSQ'
p1986
(dp1987
g3
I103
ssS'1v1_6XQukNTC9rX2XZ6u7Q'
p1988
(dp1989
g3
I561
ssS'w4MXUsyrlm0bnLl5cgkEyg'
p1990
(dp1991
g3
I743
ssS'7T7oXOr2BOtIZs0WDsKQng'
p1992
(dp1993
g3
I742
ssS'2I0i1-zEiCoYetsJsI8vLg'
p1994
(dp1995
g3
I61
ssS'SRyGUI5JmnnMpcvgqdjDzQ'
p1996
(dp1997
g3
I229
ssS'fcF_5qntNxcwqTTqlApqLQ'
p1998
(dp1999
g3
I86
ssS'YlNUiGkWfO3u6O6JwGBB6A'
p2000
(dp2001
g3
I56
ss.