(dp0
S'PBflDQXCvssaayD9ZZePLQ'
p1
(dp2
S'node_id'
p3
I26
ssS'rdH3V72a1AGiItYr6eB75A'
p4
(dp5
g3
I85
ssS'Uufvv9CBpJmPRXDQTSBKYg'
p6
(dp7
g3
I45
ssS'4zCOYwQ7m737sdwYi_NXsA'
p8
(dp9
g3
I87
ssS'lpyN2FydeLSpENyU1klW0g'
p10
(dp11
g3
I6
ssS'YKBoIgFeiOzqaRN6cR23Kg'
p12
(dp13
g3
I55
ssS'rxyjNc9M4_kAPesywk8V7A'
p14
(dp15
g3
I59
ssS'b35fzV7F43qt5Q1PY_R_Nw'
p16
(dp17
g3
I2
ssS'2DKJRZg5tr62qRzTvYN71A'
p18
(dp19
g3
I27
ssS'oSNNRyjMpe5Mu3VGV6gbtQ'
p20
(dp21
g3
I4
ssS'ukcy2ST1m2RSxQMpcowq3w'
p22
(dp23
g3
I74
ssS'p_n5gwvyOGnGbCyAYsj74g'
p24
(dp25
g3
I18
ssS'hAxvi2xMG5gAC9LZOePBQA'
p26
(dp27
g3
I36
ssS'cm_rBQTpDoqgKeZAgZB0hg'
p28
(dp29
g3
I97
ssS'2oIj1vay-WzzGW-8-Dvd6A'
p30
(dp31
g3
I43
ssS'EqRfYUY7RmFpQqrCEg7bpQ'
p32
(dp33
g3
I73
ssS'PsMnEF1rBjRe9InrvUzhWw'
p34
(dp35
g3
I22
ssS'JAzJXjfXDuMpQ87QFfjrZA'
p36
(dp37
g3
I20
ssS'Q6uL5MqR9u5aqJuWChoyTw'
p38
(dp39
g3
I90
ssS'ACATV_l5ZxtGWjXuxaRjzw'
p40
(dp41
g3
I17
ssS'YxYi0TSYGZUipJQq5sUriw'
p42
(dp43
g3
I48
ssS'7o8ftQox8Usmik734CwGcQ'
p44
(dp45
g3
I10
ssS'd-0HwKEMHmpbq8wAP_0_Dg'
p46
(dp47
g3
I88
ssS'AtnYGQjNY2cCSNWt_LY8nQ'
p48
(dp49
g3
I0
ssS'42su7lD8TYo8CRuRebIn0Q'
p50
(dp51
g3
I39
ssS'kLx-jpNgLtgNRRu2Y1tpIg'
p52
(dp53
g3
I13
ssS'r5vDrlFu45VK6kW4vyuvMg'
p54
(dp55
g3
I60
ssS'nTGmjSIzFfSdfGOa3DG77A'
p56
(dp57
g3
I99
ssS'8KCUDaMhHkv5ixutvpBlZw'
p58
(dp59
g3
I42
ssS'Lc6mKF9YAcb1dmulklfodA'
p60
(dp61
g3
I16
ssS'sW9EBhiRYOneugKBCQbhIQ'
p62
(dp63
g3
I66
ssS'ARl3It1h6bbi_BhMOQ7XjA'
p64
(dp65
g3
I7
ssS'X0VDOicOaSMTLYRfyrLdpQ'
p66
(dp67
g3
I83
ssS'vLi60zqzc675Q5c24ooOUw'
p68
(dp69
g3
I30
ssS'zmeoU9S-HCJ9b82IUVu1rg'
p70
(dp71
g3
I31
ssS'82KGbjsK4du18MGEu1RzbA'
p72
(dp73
g3
I11
ssS'V1po7TjUzklCpdZ3cOp4Og'
p74
(dp75
g3
I28
ssS'PnZA_uqiHmWWpN4lg70Ttw'
p76
(dp77
g3
I9
ssS'-BhjP7Ll-zEtXvJJQ1ZKvA'
p78
(dp79
g3
I3
ssS'A0r6dCcT1UZJcEkdYs4H_Q'
p80
(dp81
g3
I57
ssS'J1zIo58TxXiJ5t-N2HHsJA'
p82
(dp83
g3
I79
ssS'YTrENuteaA0cc5JPkmAHlw'
p84
(dp85
g3
I15
ssS'xsTlqAQ7TjNFIUl5ihK00g'
p86
(dp87
g3
I34
ssS'OvSUHE3POahr-IsC_VFbbA'
p88
(dp89
g3
I63
ssS'7IWNzfnDVs16lcQaoOk4lg'
p90
(dp91
g3
I78
ssS'GDi9_3Rn0N7LHHPXdJ3fFQ'
p92
(dp93
g3
I56
ssS'SgND2BhBJU1VplsbHzlOJg'
p94
(dp95
g3
I84
ssS'k2u1F6spBGhgk2JtAe97QA'
p96
(dp97
g3
I62
ssS'IIY-SZiNv3siGKUWzVD_iw'
p98
(dp99
g3
I49
ssS'xwUvyZ_nwfnVv4P7N3eDiQ'
p100
(dp101
g3
I71
ssS'REfQIccdKSVnEPr3Bnucwg'
p102
(dp103
g3
I29
ssS'gW3DYv-sOMtVMefnlUJcyA'
p104
(dp105
g3
I37
ssS'lhU7JDcZCreoEESNC5KTKw'
p106
(dp107
g3
I23
ssS'nbozskmdM5P8bg35atsriw'
p108
(dp109
g3
I65
ssS'VoxA7HEJUEMwU6CRh0mFtA'
p110
(dp111
g3
I19
ssS'dH9FRHSZwlhLLamaZSFdGQ'
p112
(dp113
g3
I75
ssS'TganG8st3IE9uEmo-aGb6Q'
p114
(dp115
g3
I5
ssS'HpKLR1mrb634jCnTXQr3aA'
p116
(dp117
g3
I51
ssS'39Dq_Wx0sbudqrJXT-a73Q'
p118
(dp119
g3
I46
ssS'4GJWpmNh6RIe0AW4wj8PEg'
p120
(dp121
g3
I35
ssS'8EaO99Q3E_SS8KzOR1rFrA'
p122
(dp123
g3
I86
ssS'hBLJ0s1dPwX4UJtEl1IQrQ'
p124
(dp125
g3
I12
ssS'a8SprmfnrFmIfDuhC3BfDA'
p126
(dp127
g3
I14
ssS'jJlgHIU9ltclRKnhswpCvg'
p128
(dp129
g3
I92
ssS'OlKtvqN_1y62p6mkYCPSlg'
p130
(dp131
g3
I82
ssS'NOrb1STvRGm0Uy_XoMDe4g'
p132
(dp133
g3
I33
ssS'Oyp1qPyKoeP_YxuZV0DpBg'
p134
(dp135
g3
I53
ssS'4MPooE56H7rZV4O9la7eXA'
p136
(dp137
g3
I25
ssS'QnMPMD8Nh3ErZGfMRGAeYg'
p138
(dp139
g3
I61
ssS'Vw1Kt0smSXu0mkSRHzTC_A'
p140
(dp141
g3
I68
ssS'7tPJMdCL8UDwg7otQGAXdw'
p142
(dp143
g3
I50
ssS'wWL2nVu_f9bEjuq-PvOxOg'
p144
(dp145
g3
I81
ssS'zSQps4R-_w8YkjDtgIsfiw'
p146
(dp147
g3
I80
ssS'-yB4bueheJq9dqdrBWpejg'
p148
(dp149
g3
I96
ssS'DRlg0Uif5Ii4ytsKJLmhLg'
p150
(dp151
g3
I24
ssS'PSeJKgfNRUSh6GuVnr1E1A'
p152
(dp153
g3
I69
ssS'rxQhpWH-wOV7RoT4iMkMQA'
p154
(dp155
g3
I93
ssS'-GUY5oTtKJf39CJjhrjGyA'
p156
(dp157
g3
I64
ssS'u-MDPNWS2RNCJ5a26PwEUA'
p158
(dp159
g3
I54
ssS'Bq4o8L-bmu58H42WM3iCqw'
p160
(dp161
g3
I91
ssS'nPb0-v-aOjoYKLBEZgaF5w'
p162
(dp163
g3
I58
ssS'yGdpFeEIbylTDr0AOsAO3A'
p164
(dp165
g3
I67
ssS'skiZJN5OJTyyqP2oRVNhoQ'
p166
(dp167
g3
I44
ssS'aWHX1QdKbSgSkMA9N0a8MA'
p168
(dp169
g3
I89
ssS'9QSI33wlJGBQByolpsNOqA'
p170
(dp171
g3
I32
ssS'9Dks5wGHKa8fHXQaZ9Xh5Q'
p172
(dp173
g3
I38
ssS'OgKUl4CqYlEx7jopdw_MCA'
p174
(dp175
g3
I70
ssS'ZO4ypYw9EUBF5lRlnIOwWA'
p176
(dp177
g3
I52
ssS'9xjnMhMpTiJXj4nig4NNUg'
p178
(dp179
g3
I72
ssS'MD-04cL1uycJkKtJMnnoYg'
p180
(dp181
g3
I98
ssS'dELD_6wEphnCqS85pqGo8A'
p182
(dp183
g3
I95
ssS'TTC8b2uayW0QznMnaXHP6g'
p184
(dp185
g3
I21
ssS'U9PlooHU_1pc0boSxtksXg'
p186
(dp187
g3
I41
ssS'kmnJzfMjpgY7ySy0kqSKTg'
p188
(dp189
g3
I1
ssS'LFJ5gpahkBCWvmS6ZFJeKQ'
p190
(dp191
g3
I40
ssS'8jYpVtXf9qFl_NS5yWhlbg'
p192
(dp193
g3
I8
ssS'yPejZVwY1lvehq28pEGgpA'
p194
(dp195
g3
I47
ssS'OR1ift7_9OHEU0z0Gagn4g'
p196
(dp197
g3
I94
ssS'8D408fDn0twwIW6FZ42YWg'
p198
(dp199
g3
I77
ssS'puGzwne0ytT_m0N7SLvRYA'
p200
(dp201
g3
I76
ss.