(dp0
S'cI6OM7xuSW-v2k5v-Xr2aQ'
p1
(dp2
S'node_id'
p3
I19612
ssS'pdVpqP1OzsWttx7Dxp7RLg'
p4
(dp5
g3
I20433
ssS'cnlTny3ajOPwbm7coQtUDg'
p6
(dp7
g3
I22097
ssS'hk-19MNlnZxC4T0KqLTsvw'
p8
(dp9
g3
I12746
ssS'wqwHih7XF1BPSdFyK1U-fw'
p10
(dp11
g3
I7927
ssS'BKIsSVRWP6qaUyTrSTC7RQ'
p12
(dp13
g3
I27370
ssS'Tbe7FZsU_XY3a6Ya6LAG7A'
p14
(dp15
g3
I4913
ssS'IkOaRADjz1YxUXpe7BNf4A'
p16
(dp17
g3
I20635
ssS'DlJ0SNWl2VH87hiqGMwG2w'
p18
(dp19
g3
I17747
ssS'4mt2I0jPXErxg2eCCxCiQw'
p20
(dp21
g3
I12959
ssS'PC1gZs5Ns5Wd76CL1MMsmQ'
p22
(dp23
g3
I8169
ssS'N2Oip_yWL3ewNuTTmEAfwg'
p24
(dp25
g3
I14603
ssS'F0KTqZcqbk4lsvWUqFveUQ'
p26
(dp27
g3
I21391
ssS'rWVlUIa2PX9t7lBKtzq6Dg'
p28
(dp29
g3
I21234
ssS'ZV5j4u0B1JNgdXLSx_Zicg'
p30
(dp31
g3
I2508
ssS'aLLFiXiztg_klCOtaCJNRw'
p32
(dp33
g3
I9367
ssS'8FUGf-oPwgdm7jQG0Jc67w'
p34
(dp35
g3
I27117
ssS'bpHL9UwijhIxcfDHptKUOA'
p36
(dp37
g3
I24833
ssS'zjjrbZedZ-aXhvmVIOrumA'
p38
(dp39
g3
I21714
ssS'cL_uBkLnBwonErgwQZCfDA'
p40
(dp41
g3
I415
ssS'QX1vowuLebd1qWF51-YM9g'
p42
(dp43
g3
I25260
ssS'jVtBPomsJOL8Fc0Huo-e2Q'
p44
(dp45
g3
I1728
ssS'qZUfgr51Q50N-zjOvwJxng'
p46
(dp47
g3
I27632
ssS'QdJW9eSWxlmydFVBS9ibZQ'
p48
(dp49
g3
I4684
ssS'iuEeSyyX36UMrpQD1nufHA'
p50
(dp51
g3
I18844
ssS'Da4aw-NF9ond8U6XYRmT0g'
p52
(dp53
g3
I9724
ssS'UopNb0Y8aH6a8K96zrk0bg'
p54
(dp55
g3
I17831
ssS'JJLxfU4P1lKiD2AILez2Ag'
p56
(dp57
g3
I13973
ssS'9e5Z7g2PmoLWDPN2PNMiAA'
p58
(dp59
g3
I21748
ssS'CR2DPkqxtBe6D96eCq1QKg'
p60
(dp61
g3
I14211
ssS'uT5hmE4d-GA7LPmTCyEKCQ'
p62
(dp63
g3
I2601
ssS'dOMCK_cem_nD4ZDaKkpODQ'
p64
(dp65
g3
I508
ssS'cAorc2r_qFVTXnPfuyRuCQ'
p66
(dp67
g3
I15806
ssS'qHS507CZSukuEabzwCUxqA'
p68
(dp69
g3
I3814
ssS'8U-3_r1rItwTYjyujz16ew'
p70
(dp71
g3
I8511
ssS'GsUloixMcTQCMNCjwMtoRQ'
p72
(dp73
g3
I12491
ssS'79b-cU_11t0JrhLaRjPJoA'
p74
(dp75
g3
I5280
ssS'qh_q-YZzSfOt3iJAXaykrg'
p76
(dp77
g3
I23606
ssS'xOAML_TDUVst53xBynhbkQ'
p78
(dp79
g3
I634
ssS'OZ7E1fJOZG7_7gNrUDcidQ'
p80
(dp81
g3
I9615
ssS'glV1YLq9juWlIpT_5tSf9Q'
p82
(dp83
g3
I15336
ssS'qEMBMDI4nl5yjARCWz_blg'
p84
(dp85
g3
I29662
ssS'pPEeNE7SkOaFf5GNDgHzDA'
p86
(dp87
g3
I19497
ssS'UCCBNL1FiMIuPK_NyoxnAw'
p88
(dp89
g3
I6654
ssS'C-J_e4YpFJegEkLvvW6miQ'
p90
(dp91
g3
I13724
ssS'BSwRuQgl-mbo7ZiOUBbGJQ'
p92
(dp93
g3
I9384
ssS'_iUJOb9V4Y6k7GqoSkpVkw'
p94
(dp95
g3
I6207
ssS'CAtM2DeMIRLkzDg5XyCdMA'
p96
(dp97
g3
I19175
ssS'gKi-tlKVrkVgSo_XcSojzg'
p98
(dp99
g3
I11690
ssS'LQ7qcT0TWlNFnLzdohhgPg'
p100
(dp101
g3
I17019
ssS'-gcQhnUqa5Wk3O1hoII9Yw'
p102
(dp103
g3
I1594
ssS'3aTFkOK2XO58C4SodlMdpQ'
p104
(dp105
g3
I4265
ssS'gD9efnmdVlKUodSEHWP3jA'
p106
(dp107
g3
I25386
ssS'luEyhzS-nvAOj9ODIaUx0w'
p108
(dp109
g3
I14238
ssS'SNPO1xct9ol1_3mg2bo7iw'
p110
(dp111
g3
I3738
ssS'4vSGcZyNfIuKYUP6z9Cbyg'
p112
(dp113
g3
I25478
ssS'9uEx4uWPeQS9d_rz54D-kw'
p114
(dp115
g3
I4828
ssS'ASTBKqTE8OgdZW0xMM4Nsw'
p116
(dp117
g3
I15769
ssS'Lgi85KkPUUULzZpy6v4sJg'
p118
(dp119
g3
I21840
ssS'rbScl7j0oSzFEKB8VHL9EA'
p120
(dp121
g3
I1771
ssS'nUGFEOsyC7kWgCjzQH0ERQ'
p122
(dp123
g3
I9931
ssS'1UUWdJYPrVtKIufWGgDdyA'
p124
(dp125
g3
I3238
ssS'Qpq6iUqKF4jYXPbf6Yu_9Q'
p126
(dp127
g3
I8168
ssS'QXgSQedDa-ae4Iygesn4_w'
p128
(dp129
g3
I14097
ssS'B1QKvDMo9P4X68W33QI2uw'
p130
(dp131
g3
I6799
ssS'5od0HsJgjLsymj8bL18_3A'
p132
(dp133
g3
I7274
ssS'CCL4t7fUSyqDGk9yFJw-Tw'
p134
(dp135
g3
I28577
ssS'SwnLshF0NJBRK9UilGA80Q'
p136
(dp137
g3
I9161
ssS'j5hr90PKglqi8C6F0mCnZw'
p138
(dp139
g3
I21480
ssS'arBfAealdIzErzfvateg4g'
p140
(dp141
g3
I4720
ssS'iLqeyvOJTokJDNYbcRaUMA'
p142
(dp143
g3
I24340
ssS'667JwuiC60a7MeMjwb9Bvg'
p144
(dp145
g3
I3856
ssS'qHqklkFS4JfKtcJDT1WMaQ'
p146
(dp147
g3
I16166
ssS'Bsu4ZahJSGiDOZYrsSe6mA'
p148
(dp149
g3
I1747
ssS'I0YYbQJCYlCI9562brPbpg'
p150
(dp151
g3
I12268
ssS'MDVoSLBTqsGsC4jztAs4PQ'
p152
(dp153
g3
I831
ssS'UuheIN0A5r6iWgpowFZ1mQ'
p154
(dp155
g3
I22837
ssS'5K1_czLoCZydj0-siyIhNA'
p156
(dp157
g3
I15897
ssS'd8geeKYzPeGp8uSP8C6PTw'
p158
(dp159
g3
I4203
ssS'xTtTl8pASvv7fppGNjeuSg'
p160
(dp161
g3
I30129
ssS'vkMHIwsyPP1ZFeT143hEWg'
p162
(dp163
g3
I9840
ssS'G82ejNekpPIE4BiU1dEQ6g'
p164
(dp165
g3
I5920
ssS'IQ4BX95kMDWWE_fCIKl9Ow'
p166
(dp167
g3
I29379
ssS'zZxr7X10CDThXZbnkLmNVA'
p168
(dp169
g3
I26378
ssS'5JmiscFze4gTI2ie3T4GiQ'
p170
(dp171
g3
I15814
ssS'bjUtnI2YycsP_NRxiCJgWQ'
p172
(dp173
g3
I13384
ssS'gbV41h4for_mnPzQKuVmkQ'
p174
(dp175
g3
I9887
ssS'pRKD_30VuJqjZwafXSUIBg'
p176
(dp177
g3
I17976
ssS'LE0N45E6y1nZjALLiYcJlg'
p178
(dp179
g3
I5061
ssS'tiw98xz9x7yWvGux3m-awg'
p180
(dp181
g3
I1776
ssS'AMyGa4DkbsZhKN68PayEsQ'
p182
(dp183
g3
I30225
ssS'6TQi0QpE7CeclUD7yXmdZg'
p184
(dp185
g3
I20856
ssS'WfzR9f-5-jn2QYY_K9YzWg'
p186
(dp187
g3
I20233
ssS'lCyx21nh2ZfkjRpx02678g'
p188
(dp189
g3
I11126
ssS'kDLcNV_UTF9eDZieSFgUMQ'
p190
(dp191
g3
I3550
ssS'Tj_9R74Z9C8N6pbhgj4xJw'
p192
(dp193
g3
I24807
ssS'v5Waal5jyO-bhQCSCkSitQ'
p194
(dp195
g3
I27455
ssS'B-4_1ATtqCuFlKk1c24b2w'
p196
(dp197
g3
I37
ssS'DCcJ-jgXIst-3UmWV4eRtA'
p198
(dp199
g3
I7368
ssS'atVYw-DNYmwbzBJFvb1VKg'
p200
(dp201
g3
I19613
ss.