(dp0
VyYeA34N81C78hQe1ff2Iqw
p1
(dp2
S'node_id'
p3
I373
ssVPBflDQXCvssaayD9ZZePLQ
p4
(dp5
g3
I521
ssVa6XICd9uj5dXPfdssHa3TQ
p6
(dp7
g3
I874
ssViZZDkhCpuXiRGD7wEDQBIQ
p8
(dp9
g3
I297
ssV7FuLnS_-b79GG-33mwLaMg
p10
(dp11
g3
I467
ssVOXMRrwRs1fEqqKezz__nMw
p12
(dp13
g3
I337
ssVKH-KeYKyD930J9-FfSJqOg
p14
(dp15
g3
I78
ssVHuWwL7VZL9xUWLbESFXyPg
p16
(dp17
g3
I640
ssVG-Jl2Kk_J9qSS9eZc0jWxA
p18
(dp19
g3
I603
ssVTa7v63cLOmH59UdGmzGDoQ
p20
(dp21
g3
I971
ssVAe_rbQ293MYrKaywJT6Oeg
p22
(dp23
g3
I555
ssVU040XsrqbEV27c-SIUhObQ
p24
(dp25
g3
I627
ssVc2lGK5pROxsQthZtcKgksQ
p26
(dp27
g3
I524
ssV_7el1cOgnfkNfmZKi277bQ
p28
(dp29
g3
I385
ssVtMCG_au_bnN__73ORSuyDA
p30
(dp31
g3
I502
ssVvjU0uDNyPTUVVF7RX_yaRA
p32
(dp33
g3
I998
ssVA0O7UHxcCJJXIYJDBGT_hQ
p34
(dp35
g3
I154
ssVhU93q0Q1IILmFbEGGy4xdQ
p36
(dp37
g3
I272
ssVp9GGjP59wRjC6m-RTMG2Hg
p38
(dp39
g3
I848
ssV_K1aVgm4jTLWAYBPtE9QUw
p40
(dp41
g3
I726
ssVZXZere7_WFGPkAhAaDqsmQ
p42
(dp43
g3
I308
ssVXbR2Fx-waSWhLNPE5TK8Dg
p44
(dp45
g3
I253
ssVdUXGIdry_VOVcaAHLfDOPQ
p46
(dp47
g3
I439
ssVvpu0Srt1IeHJfDV0-oWAWw
p48
(dp49
g3
I937
ssVQz5_5QaUlgXQxaZy8770PQ
p50
(dp51
g3
I680
ssVXkDiyDjqWNmk_5dwIiRQ8g
p52
(dp53
g3
I113
ssVhAxvi2xMG5gAC9LZOePBQA
p54
(dp55
g3
I694
ssVjIHaXo4-KR9kvh2J7eMkIA
p56
(dp57
g3
I754
ssV2oIj1vay-WzzGW-8-Dvd6A
p58
(dp59
g3
I599
ssVJBsvkmWWbNF9xDlf1SE2dg
p60
(dp61
g3
I614
ssVpZZoNEg9DhlQCpbwUm9NQw
p62
(dp63
g3
I16
ssVEqRfYUY7RmFpQqrCEg7bpQ
p64
(dp65
g3
I973
ssV9JcWUImFT29_QrBO8mlcdA
p66
(dp67
g3
I358
ssVsEoIoSCwvjQeegwvu7D-BA
p68
(dp69
g3
I624
ssVQ6uL5MqR9u5aqJuWChoyTw
p70
(dp71
g3
I283
ssVtR_395VZaCpbS9pg2fwyPg
p72
(dp73
g3
I320
ssVvwndetc7KXo8Ld_muTbGUw
p74
(dp75
g3
I189
ssV1Q4mCt38rIbe6q73bOx_BA
p76
(dp77
g3
I911
ssVMx5Bl-VEpDcj2fRTGAJkQQ
p78
(dp79
g3
I387
ssVO_yh4s4UMIQpgOr9cbOOuA
p80
(dp81
g3
I613
ssVeaYqU5Jky2gJyV93mo6CZw
p82
(dp83
g3
I984
ssVqleJ8kJmGvjNmK9hqaWizw
p84
(dp85
g3
I510
ssV42su7lD8TYo8CRuRebIn0Q
p86
(dp87
g3
I408
ssVhA41xCI2_76DEcSOQQ7f5A
p88
(dp89
g3
I275
ssV2XJdKllI06zG_KtZ-BVxUg
p90
(dp91
g3
I111
ssVxwzp2zmvdM4c2uK3pvL8bA
p92
(dp93
g3
I325
ssVz8lGpP-V4H1X3hmoVTo46Q
p94
(dp95
g3
I436
ssV8KCUDaMhHkv5ixutvpBlZw
p96
(dp97
g3
I863
ssV7gb62_8We3I5zVLAWxkgMg
p98
(dp99
g3
I64
ssVr_Ts9rgBJcJNTzOzHACvUA
p100
(dp101
g3
I329
ssVdY1DjSfdl_2EOhBH0Jc-FQ
p102
(dp103
g3
I477
ssVs0Pa4r5t40Rko_IuNid7YA
p104
(dp105
g3
I594
ssVRq9lyWr4hl5odX5yRoHdow
p106
(dp107
g3
I363
ssVl0fB7q-MhLS4wxwj7v-eAw
p108
(dp109
g3
I361
ssVVVsuCYRKmQ34t5_WSyaR5A
p110
(dp111
g3
I47
ssVHcxWWLD3ejPWVAMBzuCoig
p112
(dp113
g3
I719
ssV7tA04v45dzG8tADZGLrCzA
p114
(dp115
g3
I302
ssVPDFku3Ozng656CxAWH1kVQ
p116
(dp117
g3
I609
ssVWptd5AawmoAqsd9M5oMBFg
p118
(dp119
g3
I698
ssVvLi60zqzc675Q5c24ooOUw
p120
(dp121
g3
I721
ssVSp3-I-pYOVYUdTqWmyNrcA
p122
(dp123
g3
I845
ssV9bP3urjM__IP5csFh9ZsuQ
p124
(dp125
g3
I866
ssVu11icoOGFVk0am2zZOa63w
p126
(dp127
g3
I163
ssVXWzF4wam-7OJEgoPO_jHiQ
p128
(dp129
g3
I52
ssVyJm4kh4wrdc-a7KuErfqxQ
p130
(dp131
g3
I81
ssVzmeoU9S-HCJ9b82IUVu1rg
p132
(dp133
g3
I945
ssVVgo3sCbziYzH_Ox6IJKMaw
p134
(dp135
g3
I92
ssVuuXWtH-XlfjXWv0MkH8USg
p136
(dp137
g3
I887
ssVYLbPETSOtVY9PFuVu_wsKw
p138
(dp139
g3
I730
ssVwFvREZM0bO6VhgwVPIciew
p140
(dp141
g3
I375
ssVEH07V44wwSLXWZRkZ66zyg
p142
(dp143
g3
I946
ssVJ1zIo58TxXiJ5t-N2HHsJA
p144
(dp145
g3
I913
ssVXwBwRIFEaWjT25bQew911Q
p146
(dp147
g3
I135
ssVpCQz3sc_7rI-be4-Ek6SRg
p148
(dp149
g3
I56
ssVjnzIYOPghtW22HYvWoVtuQ
p150
(dp151
g3
I471
ssVpspm-OOaEXzwzisLc6G8Ug
p152
(dp153
g3
I402
ssV_gt7JDYvA-bPiIO4uLdS7Q
p154
(dp155
g3
I841
ssVJcaRTb-8fMgdFv9t-jN8Yg
p156
(dp157
g3
I242
ssVwm0ZnKtPVEdRu0VqR3akzQ
p158
(dp159
g3
I269
ssVDirJsdKrWB82R3FnLDuaKg
p160
(dp161
g3
I145
ssVyF9su8PqjDJe_ceBcop9BA
p162
(dp163
g3
I158
ssV6NGDR8p6nXo74IUGqkXsqg
p164
(dp165
g3
I179
ssV6Bv9yE1q3dIkBdw72ZQr8w
p166
(dp167
g3
I850
ssVUxRuW9FIrn65POpRsV-eLg
p168
(dp169
g3
I125
ssVBMO1gWhuqtkkmH_X1sNxpg
p170
(dp171
g3
I384
ssVgh6RTHCVYYLYD1_ruc9mLQ
p172
(dp173
g3
I32
ssVE2A3irR6Mujg4EO4Rcdavw
p174
(dp175
g3
I377
ssVsQAjHANPfjOvVBQcRsxYNA
p176
(dp177
g3
I767
ssVjvv2mNQmtHBuS12RGMhw3g
p178
(dp179
g3
I771
ssV4zCOYwQ7m737sdwYi_NXsA
p180
(dp181
g3
I576
ssVdcc7mTHDv0lwej1VqW4sPg
p182
(dp183
g3
I955
ssVATlqgcQwb3XzvDnq3Lv-0A
p184
(dp185
g3
I610
ssV4GdN3itvzmFc_6kib2UzlA
p186
(dp187
g3
I766
ssVwN6sKWryjjcDRBplyoFsGA
p188
(dp189
g3
I674
ssVH3Ubx9gZekkkNDSb98pNZg
p190
(dp191
g3
I208
ssVQingGIjdfsPFHSuSgE1Ifg
p192
(dp193
g3
I816
ssVx54M9_rkBtJasR81pGc__g
p194
(dp195
g3
I147
ssV4PxoMDVm7-wG6GVdZDIACA
p196
(dp197
g3
I575
ssVF1N-v20NsVucjkFCy4jOLw
p198
(dp199
g3
I739
ssV-FgfPEXHgONNx8QxKWLTxA
p200
(dp201
g3
I529
ssV6ZAJ4rds-Jk63uvlGN3D9A
p202
(dp203
g3
I515
ssViqkEsT_nRFGZGKxpEevDcg
p204
(dp205
g3
I934
ssVREfQIccdKSVnEPr3Bnucwg
p206
(dp207
g3
I611
ssVZNuAQq-84KCxlmPWkugoBQ
p208
(dp209
g3
I72
ssVnc3cqVN0UuB3m50-CcMftw
p210
(dp211
g3
I672
ssVlhU7JDcZCreoEESNC5KTKw
p212
(dp213
g3
I214
ssV95IEsFmxF1QsxehdioSYzg
p214
(dp215
g3
I319
ssVFTdERuaPutEd5QEJ0W61jw
p216
(dp217
g3
I626
ssVVoxA7HEJUEMwU6CRh0mFtA
p218
(dp219
g3
I877
ssVZ1kxY2ylzi2X8uDl8OIHAQ
p220
(dp221
g3
I12
ssVbieJ0AblSMhhqpa5GriXpg
p222
(dp223
g3
I540
ssV8DBCh1ykGdM71X25KNXiZg
p224
(dp225
g3
I815
ssVdH9FRHSZwlhLLamaZSFdGQ
p226
(dp227
g3
I928
ssVJxr4HUyWEuz8qpB1dWUcEQ
p228
(dp229
g3
I927
ssVvttHEN3o5UKLOOoEX8NmEQ
p230
(dp231
g3
I631
ssVRUpw3yekf5u4jsErFqXwCw
p232
(dp233
g3
I290
ssVVw1Kt0smSXu0mkSRHzTC_A
p234
(dp235
g3
I708
ssVjRs5yOnQ3LonN2_4RxX1yw
p236
(dp237
g3
I778
ssVXdJCpK1RzKJxoc5Tmjc_7g
p238
(dp239
g3
I420
ssVouSW12lHbDgYEfszZxE4Fw
p240
(dp241
g3
I926
ssV09ZCt5inrt35zuJVtxBB5A
p242
(dp243
g3
I350
ssVM5SKsJfcBSIFAJgqwYG3sg
p244
(dp245
g3
I469
ssVoJd9zyKv4DynZm1_5Sl1NA
p246
(dp247
g3
I429
ssV7ovr23oa6bAsN3EL55zvxw
p248
(dp249
g3
I618
ssVVKpaDKZPnbQIN-u18uHJvA
p250
(dp251
g3
I413
ssVQlVi4pRuYTOoLMKWS0DvEg
p252
(dp253
g3
I346
ssVvWZsmtNF2O5W_hcBRFK3lg
p254
(dp255
g3
I664
ssVnHN5HEl6NJp3vpS8Hut6ZA
p256
(dp257
g3
I878
ssVM5Jq7zls36o4rnMemOLyWg
p258
(dp259
g3
I757
ssVoj1OfUVWkLKnONMGLsqTSA
p260
(dp261
g3
I43
ssVehtcnF3Ebvq23p107LcsuA
p262
(dp263
g3
I445
ssVxwUvyZ_nwfnVv4P7N3eDiQ
p264
(dp265
g3
I902
ssV0aWsFX3XeZE7C9ZUQ6xgZg
p266
(dp267
g3
I901
ssV6STpZ4eL0rzkTdz5v-ZnUA
p268
(dp269
g3
I190
ssV9q0cPlHAM_3l6s1kle73xQ
p270
(dp271
g3
I630
ssVruRbhtptqV1ygJS6xVnvNQ
p272
(dp273
g3
I889
ssVSXAaQxq374YDFD5-6lnaeg
p274
(dp275
g3
I550
ssVMhtL6Nr2GRKVkgqXm380Kg
p276
(dp277
g3
I22
ssV-WtEyxSW7rt19jF5mHN6Sg
p278
(dp279
g3
I412
ssVz0g2DigbybdN-vL628TG3Q
p280
(dp281
g3
I406
ssVmpm2NngNAJkl5srF5A3oQA
p282
(dp283
g3
I27
ssVZzebKyNzIQrgGFPwF6lL3g
p284
(dp285
g3
I281
ssV6NXn9bd7TEbmiS7e8yf5Zw
p286
(dp287
g3
I42
ssVc04dZ5_tRAKy-eNsKVy_cQ
p288
(dp289
g3
I441
ssV5CttQfnbWHYaHH9ivMNBXw
p290
(dp291
g3
I160
ssVrF7PJO_wur7GMr7rIR7ntw
p292
(dp293
g3
I483
ssVwzYh_-fushaPL8eccbr1Kg
p294
(dp295
g3
I667
ssVOyp1qPyKoeP_YxuZV0DpBg
p296
(dp297
g3
I577
ssV4MPooE56H7rZV4O9la7eXA
p298
(dp299
g3
I127
ssVSbM_nNm7KyjEDiBPReGJxw
p300
(dp301
g3
I151
ssVxOAML_TDUVst53xBynhbkQ
p302
(dp303
g3
I634
ssVeCR75-o88bv7nSOm9GT8rg
p304
(dp305
g3
I430
ssV4lY1GVHD9v7u5Us0CGpx4w
p306
(dp307
g3
I321
ssVUCOssThZufcqehMMe6OA0g
p308
(dp309
g3
I632
ssVavTf2XsWIqFae6HQ2LVPaA
p310
(dp311
g3
I317
ssVbrQACdt3AUxRkGLeJREYyA
p312
(dp313
g3
I301
ssVBl1kEa6M3UZmp4koRZ0LJg
p314
(dp315
g3
I684
ssVWZwfmfP5X1gDDeL-M9vzZA
p316
(dp317
g3
I968
ssVOR5a1mXpxkgQjP6foOqiGg
p318
(dp319
g3
I347
ssVLns6GeibpQcce73LgfgnEQ
p320
(dp321
g3
I873
ssVzp5IV693DHV0UTJz2NUQAg
p322
(dp323
g3
I366
ssVZk9Bbu49hfKtVi_CWXD4mw
p324
(dp325
g3
I732
ssV0H9ne5frm1GjO6TjUwbxlw
p326
(dp327
g3
I485
ssVBA0RTaT7_W1Xs_orzBpZ1A
p328
(dp329
g3
I706
ssVrQoW4UsmxkHq_HuXr0D5gw
p330
(dp331
g3
I213
ssVLGXZiivoBbjNrYocw8rk4w
p332
(dp333
g3
I857
ssV-yB4bueheJq9dqdrBWpejg
p334
(dp335
g3
I480
ssVAxJ62Wj3JNu20qB0rRRNIw
p336
(dp337
g3
I753
ssV8A9MRd0KBZ1iMDRRyNQ8TQ
p338
(dp339
g3
I643
ssVCU1QEnI5Jy2JcEKmHxlAHw
p340
(dp341
g3
I411
ssVKiToF2jrMwunrwZbZPWWUQ
p342
(dp343
g3
I969
ssVLxHWAHPa-tjIzImN7fy86A
p344
(dp345
g3
I186
ssV9ep1mMlJYce8zY8Df_UFuA
p346
(dp347
g3
I489
ssVHh8wKjQK1rqgoIjHgO9Nfw
p348
(dp349
g3
I974
ssVDzuMtUboZf90GMx412eyCw
p350
(dp351
g3
I935
ssVsLmPgXbT5hnNrj1f4lsedw
p352
(dp353
g3
I455
ssVg_L3j7HsQ0WPH12qYLDI9Q
p354
(dp355
g3
I616
ssVKC6WJm_I-9tvNL2wY9Q3QA
p356
(dp357
g3
I104
ssVhNlHSw7g_ujCaVO3zBOr4g
p358
(dp359
g3
I11
ssVweoLy-BwdpPs6XysNX96wg
p360
(dp361
g3
I682
ssV-GUY5oTtKJf39CJjhrjGyA
p362
(dp363
g3
I330
ssVtiL3Kv0UqT9QXqerMKURrA
p364
(dp365
g3
I999
ssVexefpuK6O1ctUUqTxq5XLg
p366
(dp367
g3
I966
ssVdF1xf0lGiZ2yeHzTZxcw3Q
p368
(dp369
g3
I651
ssVXdhfTOCIUkfIua4icmQ8OA
p370
(dp371
g3
I990
ssV8h3wUMOg0DWJlUvKMdc7UQ
p372
(dp373
g3
I438
ssVHnqzojvN3AyZHjslUlxiJQ
p374
(dp375
g3
I724
ssVBq4o8L-bmu58H42WM3iCqw
p376
(dp377
g3
I729
ssVPsMnEF1rBjRe9InrvUzhWw
p378
(dp379
g3
I352
ssVWpa3MaraN9XKgKM0_TS0Bw
p380
(dp381
g3
I823
ssVoV_KwsciGrw09NLuh56xlw
p382
(dp383
g3
I746
ssV3nYMivR3vQ5Z0H_K4XGMrA
p384
(dp385
g3
I446
ssVRFo1ZzWJ2yUxAdL1dUl9uQ
p386
(dp387
g3
I109
ssVtwRSE14KREWCGT73phSKrw
p388
(dp389
g3
I967
ssVkzjG-s3oiYKvyY_DamMp7w
p390
(dp391
g3
I264
ssVplXs2jC0sEgJkEWNMc5rEQ
p392
(dp393
g3
I932
ssVvktGo1HGeFVoIvZ1K34a_Q
p394
(dp395
g3
I77
ssVGImAFVzC2EQ55mwMixa6JQ
p396
(dp397
g3
I108
ssVskiZJN5OJTyyqP2oRVNhoQ
p398
(dp399
g3
I40
ssVWyxBVw4OinBwJVi3uNan3Q
p400
(dp401
g3
I635
ssV-BhjP7Ll-zEtXvJJQ1ZKvA
p402
(dp403
g3
I776
ssVfA1-M_FoudCU9xxpauJBaw
p404
(dp405
g3
I617
ssV3uRD9SFPs2jzxVmRMyQ0qg
p406
(dp407
g3
I871
ssV9QSI33wlJGBQByolpsNOqA
p408
(dp409
g3
I44
ssVoMGWeM12E8vy3ytmflf9bA
p410
(dp411
g3
I855
ssV6eg5C4DoEGtZMNk5jGGArw
p412
(dp413
g3
I539
ssVDGJFuqAxVJkyF0_BhpfKfg
p414
(dp415
g3
I681
ssVGWvK-zh8JtHogDVa3-_nqQ
p416
(dp417
g3
I500
ssVOgKUl4CqYlEx7jopdw_MCA
p418
(dp419
g3
I259
ssVJBdmQfLAxutV77XshUEUgA
p420
(dp421
g3
I908
ssVwJF6CWx_9n9elpzrBh6o6Q
p422
(dp423
g3
I656
ssVgJSxh2i87r1fqU7zciXNCA
p424
(dp425
g3
I779
ssVJCpQDETmyGtQ_PJbSnc47w
p426
(dp427
g3
I404
ssVRk0WIADF3zoq2a-F-_FFwg
p428
(dp429
g3
I473
ssV9xjnMhMpTiJXj4nig4NNUg
p430
(dp431
g3
I25
ssVYSHl2ZIxBrVq8NpN_JqAYA
p432
(dp433
g3
I818
ssVMtgH4ksVOPSF2pAq3Fw2gw
p434
(dp435
g3
I13
ssVOAuLVisM05YF1mx0vkwWjw
p436
(dp437
g3
I497
ssVqzTl_FO8ogp5Aik8gML6Eg
p438
(dp439
g3
I781
ssVX73FFjzveWTOSJR2RfTh9A
p440
(dp441
g3
I21
ssVEPm0AATpor5tobMO6W9CHg
p442
(dp443
g3
I311
ssVt5VlRz0BRbaZMzODp-56pQ
p444
(dp445
g3
I494
ssVRotG1z1ZxA--cfeR2EloVw
p446
(dp447
g3
I789
ssVN3x4KnU_nqprybjzGYD2vA
p448
(dp449
g3
I649
ssV-0paANjzZPt0VAH_1BubDA
p450
(dp451
g3
I382
ssVrdH3V72a1AGiItYr6eB75A
p452
(dp453
g3
I596
ssVdCxPgWSRL7Ds4WVLaDPCHA
p454
(dp455
g3
I648
ssV_ju0P_eGbCYI43Pj3BTckQ
p456
(dp457
g3
I686
ssVkmnJzfMjpgY7ySy0kqSKTg
p458
(dp459
g3
I768
ssVcJ_PncYilrsO1ZeKK_u33g
p460
(dp461
g3
I547
ssV9ExqqAOtRIvAsOBdKuAqCA
p462
(dp463
g3
I170
ssVllkm_iXQszkN5DZvmqjNqA
p464
(dp465
g3
I665
ssV4mCfNFI8GsJbYcEq_TskUQ
p466
(dp467
g3
I183
ssVzjLRw33xDZI2__oZyROUPg
p468
(dp469
g3
I949
ssVHa6LLZLEZO4cDY-pooZr-w
p470
(dp471
g3
I853
ssVQZWo-viRnL9EmsIAN6vHtg
p472
(dp473
g3
I1
ssV8D408fDn0twwIW6FZ42YWg
p474
(dp475
g3
I110
ssVpuGzwne0ytT_m0N7SLvRYA
p476
(dp477
g3
I294
ssV-J06hZ3w7N2oV5QwaAjtwg
p478
(dp479
g3
I26
ssVizrPGEutYNurRfodgsIxAw
p480
(dp481
g3
I206
ssVzKVrFcAqiR2faJXL0BOl2g
p482
(dp483
g3
I107
ssVbvYk98zUE61KoWifshskpw
p484
(dp485
g3
I755
ssVUzsKmJRX6x8E1PX6ClSw1Q
p486
(dp487
g3
I390
ssVmkeB9GegQr8iObj_UZzhQg
p488
(dp489
g3
I637
ssV9m-ATHqaOQaKGQzNe3ViOA
p490
(dp491
g3
I180
ssVegt5RTaErcWCEVGdpwMrkw
p492
(dp493
g3
I228
ssVYKBoIgFeiOzqaRN6cR23Kg
p494
(dp495
g3
I364
ssV7eTIkF2n4-lBvArxjV480Q
p496
(dp497
g3
I31
ssVK1FPJ9ut5GboejaPBlz3aw
p498
(dp499
g3
I872
ssVds-mCfYTiYMj8nbofaPv0g
p500
(dp501
g3
I605
ssVa8ybHTd5NccDDYoH3nBARQ
p502
(dp503
g3
I397
ssVyGdpFeEIbylTDr0AOsAO3A
p504
(dp505
g3
I245
ssV5pPL2bzv6ES_jT2uY4LI2A
p506
(dp507
g3
I328
ssVLArAW4ay8mUA6xFN7ZlUNA
p508
(dp509
g3
I251
ssVrxyjNc9M4_kAPesywk8V7A
p510
(dp511
g3
I309
ssVBKP8vEwsgghGysDXCYNykg
p512
(dp513
g3
I136
ssVnwGOEh_lcl9ChYQSGAnWdQ
p514
(dp515
g3
I284
ssVb35fzV7F43qt5Q1PY_R_Nw
p516
(dp517
g3
I59
ssVO9YieWCcsHOLBWwv5w5iNA
p518
(dp519
g3
I240
ssV2DKJRZg5tr62qRzTvYN71A
p520
(dp521
g3
I249
ssVWiYbxN-JFksnFlv4kLhHOg
p522
(dp523
g3
I552
ssVmbgppRfYH0kC7p7X2VPcGg
p524
(dp525
g3
I146
ssVJ6IOwRvM6UYtJIxKR1KW7w
p526
(dp527
g3
I493
ssVXJAKSnJOn2NE8ekSh3uJTg
p528
(dp529
g3
I894
ssVHguQ0Lxxwpx1CWBloDzRIA
p530
(dp531
g3
I176
ssVmQA27gfqjLLXyzUo3zjiYg
p532
(dp533
g3
I690
ssVllS7rv2r-_YZlfK4_sivVw
p534
(dp535
g3
I533
ssVSSi6dc67qGmqV_4P7QnIQQ
p536
(dp537
g3
I702
ssVhORy0O17fXiPM5g_ouY3-A
p538
(dp539
g3
I703
ssVASenO-NcZyEoJJw_aO7C7A
p540
(dp541
g3
I704
ssVsEbZbbyhJL7Pv4z23LpGsg
p542
(dp543
g3
I205
ssVrTWtHcX68CjWxJszyHjPhg
p544
(dp545
g3
I211
ssV5S3qIi-EHG634Mx-_mpBQg
p546
(dp547
g3
I38
ssVVk-hJ1i5ZagPM87Kv9FOnA
p548
(dp549
g3
I963
ssVKeXHDiRfSY6PPDoOSaSFsQ
p550
(dp551
g3
I235
ssVuFOYBSZV2DZhNNPEePWbUQ
p552
(dp553
g3
I156
ssV_qQJEA45k_E6EGE7vuzUDA
p554
(dp555
g3
I795
ssVvDIs0RJ3r7OS9bOAxeylFw
p556
(dp557
g3
I219
ssVdy65J4MjecYKCnXfR3Ct8Q
p558
(dp559
g3
I907
ssVvbXlEr9FyUdtdCb1iDCdmA
p560
(dp561
g3
I271
ssVXM4eixpB3VzbWAMSN6jRQQ
p562
(dp563
g3
I149
ssV0wfbXo0JF9pmaDlKpIOFdw
p564
(dp565
g3
I345
ssVMc25_FATV3pNrELPIL5GOw
p566
(dp567
g3
I292
ssV4OnussgeseojRRimclMnSA
p568
(dp569
g3
I54
ssVNhVYnj6s2uFwrrDmu7Jyew
p570
(dp571
g3
I398
ssV27-_MzkTnyottLHf5FMCeA
p572
(dp573
g3
I569
ssVACATV_l5ZxtGWjXuxaRjzw
p574
(dp575
g3
I389
ssVUjElHRjwqj3-QLgy0z48fg
p576
(dp577
g3
I859
ssVSjYyh0D9DfBTaMEPYcAPdw
p578
(dp579
g3
I99
ssVY6Y-Is1t48LP9QMKi5MyWA
p580
(dp581
g3
I175
ssVXAK1cIQ4ANQtL2QPnukNDw
p582
(dp583
g3
I466
ssVNj4hLqsNh0vpIt0-HwakHA
p584
(dp585
g3
I97
ssVU10F_bEuL7J3SUTtO_3XHQ
p586
(dp587
g3
I50
ssV7o8ftQox8Usmik734CwGcQ
p588
(dp589
g3
I574
ssVuZyzPG8Gkjwld9fHpPBd1g
p590
(dp591
g3
I195
ssV3-vjuwS6bEurZONd5xeo1g
p592
(dp593
g3
I58
ssVAFESaSYwWIsXOAuO22KIUQ
p594
(dp595
g3
I313
ssVAtnYGQjNY2cCSNWt_LY8nQ
p596
(dp597
g3
I203
ssVLlGQkuKHKHTZqPp6H9KB9w
p598
(dp599
g3
I486
ssVw_hDmPuou6xnemXUu-jc3Q
p600
(dp601
g3
I814
ssVRnqZyKKHsjRbOWc1vrmiCg
p602
(dp603
g3
I514
ssVOO835Kwyxd446nWS3seqFg
p604
(dp605
g3
I209
ssV4d1W47SAKgPznUnJmRCdKA
p606
(dp607
g3
I376
ssVV_U2zXwNtkG4kVB7sGGZxA
p608
(dp609
g3
I255
ssVZCbSvRpfWbt9WzH0h4B_gQ
p610
(dp611
g3
I985
ssVBW1I80sYvsSlwArrQ9mroQ
p612
(dp613
g3
I621
ssVX3NSW-4NkDKYzK7vRKqRQA
p614
(dp615
g3
I131
ssVdZavkc1IEyYxbniRArjbYw
p616
(dp617
g3
I46
ssVKTMqiNYmGBzenePbCVLa-g
p618
(dp619
g3
I157
ssVhKfeV80rP54McmEBQ618yA
p620
(dp621
g3
I769
ssVdQTnJCu2dgeblsPeuUeEPw
p622
(dp623
g3
I332
ssVcWH2k_nbBmAH8iuQFMjQgA
p624
(dp625
g3
I299
ssVVv89iM91KdciCALtg6hJtw
p626
(dp627
g3
I738
ssVLc6mKF9YAcb1dmulklfodA
p628
(dp629
g3
I583
ssVQ-kw41pmxwNCBQ63Y-FIpA
p630
(dp631
g3
I57
ssVmODRlE6YB-qdmJPoJ-WcWA
p632
(dp633
g3
I970
ssVdOMCK_cem_nD4ZDaKkpODQ
p634
(dp635
g3
I508
ssV3zP6xCGc5eSeimDfugRYAw
p636
(dp637
g3
I282
ssVNf_-ReLKWQAf-lJS3ujbGg
p638
(dp639
g3
I520
ssVO0B1CSVV8HQBN2ruLKckdg
p640
(dp641
g3
I482
ssV6POMlZx1zeGp9nVnuLrTxw
p642
(dp643
g3
I491
ssVcc-NjTz637u7EtFd83dn_w
p644
(dp645
g3
I930
ssVbZN1xlzl_fNA7ihgwd9YjA
p646
(dp647
g3
I169
ssVZiSL-0G_x7fclCHAQjra4A
p648
(dp649
g3
I742
ssV5AwX3A1D-PJkkrWuRpmpCA
p650
(dp651
g3
I0
ssV6ZLjNYVfOfAtkkC-64ADZQ
p652
(dp653
g3
I386
ssVjIs5_aDWfaUFIqeF-Hq1bg
p654
(dp655
g3
I227
ssVIIY-SZiNv3siGKUWzVD_iw
p656
(dp657
g3
I130
ssVjRteemWmPzYuTxFe0L0xJQ
p658
(dp659
g3
I653
ssVJNAzYLB6OvCZLYlIPDo03g
p660
(dp661
g3
I61
ssVg3Ki_WNI54Eu3Tsnma9iYQ
p662
(dp663
g3
I119
ssVYnUOjXIzNebruPbKhCEIHQ
p664
(dp665
g3
I676
ssV48-ziCwNYCs2i-ZuPKEvbQ
p666
(dp667
g3
I254
ssVcL_uBkLnBwonErgwQZCfDA
p668
(dp669
g3
I415
ssVPnZA_uqiHmWWpN4lg70Ttw
p670
(dp671
g3
I298
ssVGIh4XB5bbjq1fKSUS6MhsA
p672
(dp673
g3
I523
ssVIxkFiVHEdk7YKbw5DsNhmA
p674
(dp675
g3
I629
ssVjtSwakJIjOm19sB2S4WnsQ
p676
(dp677
g3
I512
ssVhPxAMZfClMKlKJmctsTvgw
p678
(dp679
g3
I892
ssVgV32nIyvNKZH5YCmMngyTA
p680
(dp681
g3
I586
ssVDM-l3LuRG9150FO7J2E_vw
p682
(dp683
g3
I972
ssVdCNgVHnV5rUece7p5L4gPA
p684
(dp685
g3
I734
ssVpg5mlkpJMpyMTfnY4B3RPA
p686
(dp687
g3
I792
ssV_mDN0Q9ZaLfG40G7j7WCIw
p688
(dp689
g3
I18
ssV3Bg1eWkNkBJ9858JmVTKbA
p690
(dp691
g3
I830
ssVxsTlqAQ7TjNFIUl5ihK00g
p692
(dp693
g3
I138
ssVmNb-Mn78KAG0-dG4kLVVaQ
p694
(dp695
g3
I964
ssVNWdJ_Q57WZM8XGxFJEjnmg
p696
(dp697
g3
I33
ssVC18SezVHW6jl9XMVPaPN-A
p698
(dp699
g3
I677
ssVOvSUHE3POahr-IsC_VFbbA
p700
(dp701
g3
I423
ssVRqgooNmbwSeAoBSLKTi0XA
p702
(dp703
g3
I581
ssVIgMhM28GtVdkg7qwM-auLQ
p704
(dp705
g3
I675
ssV8qe2c5uRlAkvNFvDriBm1Q
p706
(dp707
g3
I991
ssVgTh8hCjuSZc--mxXvlBbIg
p708
(dp709
g3
I564
ssVoBwb6ViGFerK2ATjGEOywA
p710
(dp711
g3
I122
ssV_8PFw-krrj97F9r_zCiI2g
p712
(dp713
g3
I542
ssVjVNpBd3oF5Tch8O74BkEDw
p714
(dp715
g3
I475
ssVfmIE7XsIenncwgtGTUCWcQ
p716
(dp717
g3
I101
ssVj3jlv2RPjKFh7MoePlPBlg
p718
(dp719
g3
I895
ssV4vcgh46DS56DHFVWZPvgOg
p720
(dp721
g3
I699
ssVa0pG_Dl4sKb3yNps7I_hMQ
p722
(dp723
g3
I73
ssVE-lSz9Xy2GdiDiFXW3cLRQ
p724
(dp725
g3
I239
ssVmV6NA9Nh3ZvD95fgRLY0Vw
p726
(dp727
g3
I362
ssVfGoUxyf1CmEvTfXYGeoKtw
p728
(dp729
g3
I519
ssV2h3L5wnUVQ4ppf3ou_C8OQ
p730
(dp731
g3
I312
ssVmJyAPqxCUg1Juh0ZDbaKdA
p732
(dp733
g3
I840
ssVVBE0RoBJEG_yvHkRrLkTyg
p734
(dp735
g3
I910
ssVNUQOO3L4gYdHCvKZaRynGA
p736
(dp737
g3
I562
ssVOq3jMOJPcKcxde2cAqjxiw
p738
(dp739
g3
I723
ssVGc2HgeugdfddetscYkNoOg
p740
(dp741
g3
I468
ssV_PfzyJIqUsn-X6q77ywjEQ
p742
(dp743
g3
I419
ssVZTQwa81YCyhAOCqP5xPmag
p744
(dp745
g3
I367
ssV0q2hbNMUTYjFdGB0Tr6jpA
p746
(dp747
g3
I260
ssVi8kR-Qnn3xd9EnpCWs9POQ
p748
(dp749
g3
I893
ssVgW3DYv-sOMtVMefnlUJcyA
p750
(dp751
g3
I24
ssVz8-kXWHjt9c3AL-X50MM7A
p752
(dp753
g3
I216
ssVU0qjOmfTeNpUJO3luqMEKw
p754
(dp755
g3
I645
ssViTAXiNZrlzqlx_7dDsjwQA
p756
(dp757
g3
I688
ssV34TwcChxsSVJvgNKdo2gFg
p758
(dp759
g3
I958
ssVo1FQiOv3lm9mqL-jGpCiFw
p760
(dp761
g3
I834
ssVnbozskmdM5P8bg35atsriw
p762
(dp763
g3
I200
ssV8nD0nJ5d8mxwdEtyURIb4A
p764
(dp765
g3
I720
ssV-KCR0e2Nyc7a7qvqnr9njQ
p766
(dp767
g3
I55
ssVXDd7Kjg4JHvRhz95mUC1Ag
p768
(dp769
g3
I340
ssVv5Z3H70RqUnGMo2i_bxpWw
p770
(dp771
g3
I782
ssVGPek49ZSHzG69ed_KbY-Zg
p772
(dp773
g3
I112
ssVTWBLFQsDr_3G7XbCErmL9w
p774
(dp775
g3
I944
ssVSOrFoT6Ib1w4fH7XTbeT5Q
p776
(dp777
g3
I997
ssVcCNucgcprU1pEr_TH5qfaw
p778
(dp779
g3
I71
ssV5xSIdC1tdsJPtJnWj3ofRw
p780
(dp781
g3
I810
ssVxTYSKCMa8Tc5tgq_n9neWg
p782
(dp783
g3
I819
ssVT7t5UdadpHua-YnmiFpcZw
p784
(dp785
g3
I692
ssVFKyea9iziM__tR1JghHj_Q
p786
(dp787
g3
I394
ssVpaZP1AjZ_xElpNv81yWFkQ
p788
(dp789
g3
I890
ssVVP7upB0PNO8OrVTA8jm8qA
p790
(dp791
g3
I105
ssVhC3XkU_GzvypLHfkX6770g
p792
(dp793
g3
I864
ssVNXewRPjoqPjFSYOjwYNTZQ
p794
(dp795
g3
I84
ssVKydTpdUtq6o-u3JLjZFrDQ
p796
(dp797
g3
I658
ssV4hIgSKVFrstym0E2SEzL-g
p798
(dp799
g3
I10
ssVwG140zh0vjgsIEdgT_UHPw
p800
(dp801
g3
I165
ssVl4uFFd-MC4ei7JCM8V9qzQ
p802
(dp803
g3
I155
ssVR2y1ZZO2JtzjCKhRpJ3CjA
p804
(dp805
g3
I625
ssV2TaOmpSCAmKob2YBOhvsIw
p806
(dp807
g3
I137
ssV6KZdYi8bZw4Od4C5VK1Wrg
p808
(dp809
g3
I133
ssVhBLJ0s1dPwX4UJtEl1IQrQ
p810
(dp811
g3
I783
ssVZoU0sTLTa4wVVndrInbmTg
p812
(dp813
g3
I23
ssV084rLl9fT-q74J9zl-r6lA
p814
(dp815
g3
I307
ssVMofhftznXiuBxID1GNOSYA
p816
(dp817
g3
I487
ssVTq-Gr5ru4tiwF4IHmIzQYg
p818
(dp819
g3
I285
ssV0ENpugx_ZHN-hZu1NvOQ6Q
p820
(dp821
g3
I123
ssVDY-U7c0451pUs25p_AhUgQ
p822
(dp823
g3
I549
ssVqgnequH3yIsYVJAjlazTGg
p824
(dp825
g3
I85
ssVPc-6iaUA1hPkTZP2g4G0Hg
p826
(dp827
g3
I177
ssV7FadEKwkRx-SmBr556caRg
p828
(dp829
g3
I679
ssV6M8u19QuC6Fo3TPvuGLfGQ
p830
(dp831
g3
I167
ssVLsiZwF0uITNsAD-TXEIA6A
p832
(dp833
g3
I993
ssV3ay0VC64u7Tt9sYkjOb46w
p834
(dp835
g3
I812
ssV8pkUfVTNhoGYFO9aui7oCg
p836
(dp837
g3
I798
ssV82tSm6A56DMQgE9mSR91AA
p838
(dp839
g3
I797
ssVX0s9CYUhVOG9-DUSZrY6rw
p840
(dp841
g3
I787
ssVfjJ9tgJNhDR_l3_4t5fz2Q
p842
(dp843
g3
I752
ssVxzlE4JFONjdoNzXvAkE1zQ
p844
(dp845
g3
I305
ssVGJb7PHAY6sejcoB0lfVEkA
p846
(dp847
g3
I460
ssVpWhMf2F1xuejOSWCrqhUxA
p848
(dp849
g3
I615
ssVhTVzKzj9uAcmDU0M9TwsrQ
p850
(dp851
g3
I988
ssV2-GIaS8Bc4MHqzXHLQY9Ew
p852
(dp853
g3
I516
ssVbSxRMman23jqYU_-aMPOHg
p854
(dp855
g3
I359
ssV2U9fNmNZBtR9JGNKAWeGjQ
p856
(dp857
g3
I379
ssVF6d_GAFAEuvIEW1Zg5KPRw
p858
(dp859
g3
I821
ssVHZTUSfAZlp2BPdxoDN6i-Q
p860
(dp861
g3
I983
ssVPMDOLWbppQa28B3Emi-Pgg
p862
(dp863
g3
I437
ssV2fqi_v6jp8hXoHFGJ5505g
p864
(dp865
g3
I427
ssVMDVoSLBTqsGsC4jztAs4PQ
p866
(dp867
g3
I831
ssVtiLDO-1uzUJBlF37wA47Hw
p868
(dp869
g3
I2
ssVJgDkCER12uiv4lbpmkZ9VA
p870
(dp871
g3
I201
ssVdTJohVhrW8UMuHApeo_xtw
p872
(dp873
g3
I950
ssVb1CqQROFO9veKPZaEl_jDw
p874
(dp875
g3
I867
ssVUMq89piQvpAVFVfiGc6ndA
p876
(dp877
g3
I323
ssVC3pfqJVsHOdv4t9GArBBxQ
p878
(dp879
g3
I620
ssVwWL2nVu_f9bEjuq-PvOxOg
p880
(dp881
g3
I30
ssVU-7-ZSsq5znOp_N9U6jGqA
p882
(dp883
g3
I585
ssVzSQps4R-_w8YkjDtgIsfiw
p884
(dp885
g3
I403
ssVcVrh_fc0YYoGJF_Z4KYIJg
p886
(dp887
g3
I266
ssVeoHRVWFl0sGc5ABljL079w
p888
(dp889
g3
I225
ssVayInxB0UnHZXGSaXOw5TyQ
p890
(dp891
g3
I897
ssVDRlg0Uif5Ii4ytsKJLmhLg
p892
(dp893
g3
I374
ssVU9PlooHU_1pc0boSxtksXg
p894
(dp895
g3
I796
ssVcjhSTaDI5XffCXRJsXPmSQ
p896
(dp897
g3
I279
ssVbrRr5SRQyzYa6S623Kvd5Q
p898
(dp899
g3
I241
ssVG-WkmCN8uahUqQK4YxneEg
p900
(dp901
g3
I595
ssVN0QZjNCBJzZNMUJAECG6Bg
p902
(dp903
g3
I236
ssVLFJ5gpahkBCWvmS6ZFJeKQ
p904
(dp905
g3
I728
ssVstVEfpZ5HnUtNSXfLB0NrQ
p906
(dp907
g3
I356
ssVRYh0uRAk_l54NHz_34OlrA
p908
(dp909
g3
I194
ssVynW1j1OXP9ztbasZclf4jg
p910
(dp911
g3
I139
ssVTK7yRocuroDWjSk7xH2A4w
p912
(dp913
g3
I709
ssVu-MDPNWS2RNCJ5a26PwEUA
p914
(dp915
g3
I891
ssV9m2wQ0vU_nijlh09v4jgNQ
p916
(dp917
g3
I360
ssVM32QoptwyX6FmUsA1sGNkw
p918
(dp919
g3
I256
ssVEVeSej-_h18Riepz6ORHFA
p920
(dp921
g3
I484
ssVScGRHKYZb79rr1KJi01EZw
p922
(dp923
g3
I803
ssVtBbdAT5sxbk7LBvmGQjdfA
p924
(dp925
g3
I747
ssVnPb0-v-aOjoYKLBEZgaF5w
p926
(dp927
g3
I351
ssV7ICVDkyjDLrAdxAZAQyVoA
p928
(dp929
g3
I827
ssViDHhSKwRwPzhGmI2lOGw2Q
p930
(dp931
g3
I435
ssVXp2PGQp5gTQwBKWaHMO1ug
p932
(dp933
g3
I100
ssVGqeWMTDbE32Yll17EfrzlA
p934
(dp935
g3
I951
ssVqBZ-nfHi7T1DbKoHstqIuQ
p936
(dp937
g3
I660
ssVHErv4zp1mxRf0Bl0z1Un3Q
p938
(dp939
g3
I303
ssVLKP1tvFs4H5DgpPlNqzkCA
p940
(dp941
g3
I809
ssVg6MqolUz-ndBGKBlKsfb4A
p942
(dp943
g3
I986
ssVlyvI4akZ5_XQrp-06MVMlA
p944
(dp945
g3
I120
ssVGUD49EIrgLn7UbasgD4ftQ
p946
(dp947
g3
I504
ssVvppxzkWj_ZQKdUrdyM7mwg
p948
(dp949
g3
I790
ssVJS7YiwbpYPvlfM2gCG1GMQ
p950
(dp951
g3
I919
ssV_Kq5KTOhgWn4h1-Q0fAXcg
p952
(dp953
g3
I207
ssVJsb8Y-c2LtamVN1DE6-1sg
p954
(dp955
g3
I880
ssV4Dqeb_NGFpLG1PJp7wqaJg
p956
(dp957
g3
I344
ssVRdKgYHJfOX-GNIX2N_lkhg
p958
(dp959
g3
I714
ssVZO4ypYw9EUBF5lRlnIOwWA
p960
(dp961
g3
I885
ssV9MmNbgikabuqWOalj73KwA
p962
(dp963
g3
I639
ssVL3xw9bfKdJ_LaZbCwI9HGA
p964
(dp965
g3
I233
ssVAWcwYAZyqZOheTNEwdAF8A
p966
(dp967
g3
I584
ssVmha1Xd0asQfPeETU9Hx3vw
p968
(dp969
g3
I434
ssVyM4XsvRUHWuz7R88eQRsHA
p970
(dp971
g3
I258
ssVIKJR3VafpwuJr7ILYnSO7Q
p972
(dp973
g3
I980
ssV54w6Vv5Ke-HPusac0N69fg
p974
(dp975
g3
I774
ssVdXSBS24lhX9SjrFs8Nxo6g
p976
(dp977
g3
I114
ssVp7oREbtJKOZrNlrkAYbZ_g
p978
(dp979
g3
I118
ssVa99f2UeBwZzZq00KMGYQvA
p980
(dp981
g3
I369
ssVdELD_6wEphnCqS85pqGo8A
p982
(dp983
g3
I416
ssVWn47EMhtvJQZTsfvvcnkJg
p984
(dp985
g3
I35
ssVOyBfnv5-vUh5jboec6A2xQ
p986
(dp987
g3
I28
ssVBc8Rh0lSJKs10JKvxIo26Q
p988
(dp989
g3
I459
ssVk2u1F6spBGhgk2JtAe97QA
p990
(dp991
g3
I800
ssVhnCf18XK8Cz0KQJZ6nLXFw
p992
(dp993
g3
I166
ssV2DCpsscwe7uSrpF8_dClfg
p994
(dp995
g3
I638
ssV8jYpVtXf9qFl_NS5yWhlbg
p996
(dp997
g3
I503
ssVp7spZ82n3Co0YXqNNTa-Zg
p998
(dp999
g3
I560
ssVyPejZVwY1lvehq28pEGgpA
p1000
(dp1001
g3
I770
ssVCpG-O_CfqWUH10-74nvwWA
p1002
(dp1003
g3
I956
ssVGC9GHvDBeHWRFH8IzmjQ_Q
p1004
(dp1005
g3
I862
ssVD8HIs6O2r1_dEZoBQfKBDw
p1006
(dp1007
g3
I250
ssVtkJsmZeZqjCdZnVSh0qtOw
p1008
(dp1009
g3
I662
ssVyYFbiYBJrOGDFSfjMlBBkw
p1010
(dp1011
g3
I144
ssVHFjt0Dpq4wJVj9IpFzDbYw
p1012
(dp1013
g3
I265
ssVCiAbX7zbQamuAvZSVfu9zg
p1014
(dp1015
g3
I806
ssVAEYSDPOImbTncErJBjDGng
p1016
(dp1017
g3
I414
ssVMJ2xFLYg_e9d62Wbxr50aQ
p1018
(dp1019
g3
I478
ssVZ_IPU5stsJq2DdgdBQxC9g
p1020
(dp1021
g3
I962
ssVWafqNoP1iULeQF2br4v4Pg
p1022
(dp1023
g3
I740
ssVlpyN2FydeLSpENyU1klW0g
p1024
(dp1025
g3
I96
ssVTZfpMx086IiaL0h9DFZWvw
p1026
(dp1027
g3
I526
ssVf2vSByeyI8_MzKUiqFqCbw
p1028
(dp1029
g3
I115
ssVUmog0G6lgmMzM9gbFYACgA
p1030
(dp1031
g3
I961
ssV04xDhY_bmIbV3oYPt47nFg
p1032
(dp1033
g3
I289
ssVshdASrciwOzYLC-oYb4dHg
p1034
(dp1035
g3
I763
ssV3Z2c8dL_nRXc7dd5_sFsPw
p1036
(dp1037
g3
I86
ssVEUgv13qRQ0OhmG40x_fcFg
p1038
(dp1039
g3
I9
ssVprNDsstT2y8g5lT2LG9NPw
p1040
(dp1041
g3
I74
ssVoSNNRyjMpe5Mu3VGV6gbtQ
p1042
(dp1043
g3
I318
ssVR4yHus6H2bTRCADegjZLYA
p1044
(dp1045
g3
I860
ssVpx2RiQ7zbM9BR9ALuwkJfg
p1046
(dp1047
g3
I34
ssVMEOozvDYFPR_zm9FcUjunw
p1048
(dp1049
g3
I916
ssVtpl4rYAABbq83vUYuqHSlw
p1050
(dp1051
g3
I553
ssVj3tsCLDfix-PJpxIRS8lnA
p1052
(dp1053
g3
I295
ssVukcy2ST1m2RSxQMpcowq3w
p1054
(dp1055
g3
I161
ssVE9jtD7EFBRQDaswk6goqDg
p1056
(dp1057
g3
I98
ssVMfzQr1wAuA-Hj1eNHPqAgA
p1058
(dp1059
g3
I424
ssVuFmgbCV_EtNT6S5pZDhVpQ
p1060
(dp1061
g3
I220
ssV-iMhSl5jV5GL7Lv7sFez0w
p1062
(dp1063
g3
I784
ssV8fhnxIkuGyXner8qB08B-Q
p1064
(dp1065
g3
I224
ssV6NinikgjcE6eoaDKR74Drg
p1066
(dp1067
g3
I354
ssVj8bhmzRukocEe2KgHfsuAA
p1068
(dp1069
g3
I490
ssVpt4qyGxxHB9uVodhWsskVQ
p1070
(dp1071
g3
I288
ssVamv1I9D-4LaOvmL9fVa5sA
p1072
(dp1073
g3
I811
ssVSJoMGpnY0DVtMlpjFK78-Q
p1074
(dp1075
g3
I262
ssVadcl2Z9yjoGfTRaWriae5w
p1076
(dp1077
g3
I876
ssVGDi9_3Rn0N7LHHPXdJ3fFQ
p1078
(dp1079
g3
I442
ssVKe7DuzDWnOgTEdzCnev7nA
p1080
(dp1081
g3
I277
ssV7u5AyDmn77w-l6a77x8M6w
p1082
(dp1083
g3
I410
ssVWy0cQzLPCBAtLiyr03Tp6A
p1084
(dp1085
g3
I922
ssVFBE0gDdN4fZH-6uo-mWgPQ
p1086
(dp1087
g3
I45
ssVyJm-r9XFET3o8utPvjjDfQ
p1088
(dp1089
g3
I673
ssVYxYi0TSYGZUipJQq5sUriw
p1090
(dp1091
g3
I174
ssVKCIm4pO8HIj_cOietJ_Axw
p1092
(dp1093
g3
I741
ssVyneluytnFRAf-s4i3JDbIA
p1094
(dp1095
g3
I4
ssV9rnGNvOtWNwmd0sLL9FTyA
p1096
(dp1097
g3
I666
ssVnb-7hIBnNq444Cox8z4XhQ
p1098
(dp1099
g3
I612
ssVrfZfa9Nycdr0QiQQoVMwgg
p1100
(dp1101
g3
I832
ssVRwuMQEsnpT1hAoFPwTws7A
p1102
(dp1103
g3
I465
ssV9BvPJnPms8x7G2Hi4BBmmQ
p1104
(dp1105
g3
I421
ssVrEtF8ME8LdO54rMhDhXUKA
p1106
(dp1107
g3
I917
ssVuWZXxILSlzTbMvXE7DaEbA
p1108
(dp1109
g3
I164
ssVeL3SuwgPa8olEuZjx0YvNA
p1110
(dp1111
g3
I683
ssVO-Offow2UVaab04Wwv9g-w
p1112
(dp1113
g3
I193
ssVejdrB2HwZCvb0C1XVlbqPQ
p1114
(dp1115
g3
I447
ssV5A_PhiRe9-D2RdObFF-I1w
p1116
(dp1117
g3
I528
ssVDhrDFWCdDhkKmZDJn75muQ
p1118
(dp1119
g3
I804
ssVMIvCXHgE_vcKz7lYS5FPvg
p1120
(dp1121
g3
I541
ssVwZakvhQ41cw6gjFpi7l2fg
p1122
(dp1123
g3
I231
ssViAi-PePA7GYb_BeQEnoCSg
p1124
(dp1125
g3
I559
ssV3m5rsk7xoLddGrLK3Qi5rg
p1126
(dp1127
g3
I884
ssVOEs1nIfj6wQe5Pf4ClhDrA
p1128
(dp1129
g3
I687
ssV9Z106oUlRm3dq9QrOQ5h4A
p1130
(dp1131
g3
I556
ssVLVo89BOC1S5AHVVGJyOJ0g
p1132
(dp1133
g3
I671
ssV65GC-tdQLtOEaFieHKaG-g
p1134
(dp1135
g3
I563
ssVsYFuZL35EYDU5IOfwrtwnQ
p1136
(dp1137
g3
I756
ssVkFelQwJX3ZoOyhhTgTC-tg
p1138
(dp1139
g3
I994
ssV8EaO99Q3E_SS8KzOR1rFrA
p1140
(dp1141
g3
I571
ssVGzq5CtS6pD4JOKvXNJ4B3Q
p1142
(dp1143
g3
I636
ssVcJybMiqcR8KiFz0Q3Oo7bg
p1144
(dp1145
g3
I221
ssVZaoOjECth7GOtcYpgBGWIQ
p1146
(dp1147
g3
I661
ssVwRRVIAIo8AbdayfvWky7jg
p1148
(dp1149
g3
I293
ssVjv90_r4pRbyo3aKIipj-OQ
p1150
(dp1151
g3
I132
ssV1gspFi59uDO00PSM5LMlhQ
p1152
(dp1153
g3
I246
ssVs84bPsSHAALBpsgTsHw_Vw
p1154
(dp1155
g3
I759
ssVhqjDAPapGKJ3U4wUN1dGMA
p1156
(dp1157
g3
I457
ssVPTAgCZJyUNJG3_XWz53hUw
p1158
(dp1159
g3
I689
ssVrS8zK3NwQBUZSEUlPt7TKg
p1160
(dp1161
g3
I263
ssVixQLGjXSW7FTBdiVKf5O0w
p1162
(dp1163
g3
I794
ssV9zeFV0CBTzcOQJ2rDKHhcw
p1164
(dp1165
g3
I505
ssVA0r6dCcT1UZJcEkdYs4H_Q
p1166
(dp1167
g3
I601
ssVgH9LB7WrLOj1sqyZ14nF1A
p1168
(dp1169
g3
I582
ssV3qJLajDPgc-Imjk5INt8mQ
p1170
(dp1171
g3
I527
ssVntUpAxMcQX1Ux3qSt6-UTg
p1172
(dp1173
g3
I538
ssV4Cq-zhMELdFeRZHN9zy7-A
p1174
(dp1175
g3
I578
ssVBZkcm4IPbnBlmmT8b3ukRg
p1176
(dp1177
g3
I761
ssVnSSXAhmBMjjPUaYbqsLsVA
p1178
(dp1179
g3
I920
ssV_L9bVY6Z6_zO4UwDAwzsaQ
p1180
(dp1181
g3
I652
ssVfOnuCvEPM1sfkWBNI4ne3A
p1182
(dp1183
g3
I75
ssVQxDbRWE2pPidwILfk6F1Ew
p1184
(dp1185
g3
I760
ssVspv0G_j8KgUjsXryWedTzQ
p1186
(dp1187
g3
I243
ssVWZJEdsPReU5l6ZddRGMq9g
p1188
(dp1189
g3
I334
ssVZbt_xK9M2k32DzzVkoPj8g
p1190
(dp1191
g3
I882
ssVhdndaMyC7_G9qKA-pNvsiA
p1192
(dp1193
g3
I315
ssVnte_amQXKvsNUPdS4zC60A
p1194
(dp1195
g3
I280
ssVQm9QOYeVXYiNh0Osg8jo4Q
p1196
(dp1197
g3
I534
ssV7LZqJWXm4lEkSh112v79vg
p1198
(dp1199
g3
I807
ssVs6QEZxEYxECGtc8EHChosw
p1200
(dp1201
g3
I202
ssVjmElDkSOU6K_ff4NH-O8qg
p1202
(dp1203
g3
I948
ssVSgND2BhBJU1VplsbHzlOJg
p1204
(dp1205
g3
I546
ssV6LkO5tAYYimFc0CgVGUk3A
p1206
(dp1207
g3
I758
ssV067gQ2JZS15cdUhnot6rKQ
p1208
(dp1209
g3
I924
ssVd3rsz09litqwVDGC6egItg
p1210
(dp1211
g3
I6
ssV1mmH626kCKTQfmJjodDEbQ
p1212
(dp1213
g3
I929
ssVXoDauxslLmZbT3SkmdaDRg
p1214
(dp1215
g3
I383
ssVgvMlqi-82UtLCFDVqT2j7g
p1216
(dp1217
g3
I641
ssVYTpSBg3DlYKSFl357F5-tg
p1218
(dp1219
g3
I786
ssVyjLmQjiCn_8555HEmdpUaw
p1220
(dp1221
g3
I456
ssV44FZYP4fQbeAimA818oHtw
p1222
(dp1223
g3
I762
ssV9IAMTjvhfHMoCqggUic5xA
p1224
(dp1225
g3
I858
ssV0Ov1O2Gd0dwjkSaj5NJbhg
p1226
(dp1227
g3
I678
ssVWp0fK5noASGF1-6PnKVMLA
p1228
(dp1229
g3
I481
ssV_MLUOGwK-1jgwub4Wzwk_A
p1230
(dp1231
g3
I324
ssVG8ibBQ5Wf4zA4zNCFRtQPQ
p1232
(dp1233
g3
I716
ssV6kmu0mYbdpMIOZ6Y0eVsxg
p1234
(dp1235
g3
I975
ssVjagd2iT4WJ7uP4r_IUH-aw
p1236
(dp1237
g3
I668
ssVZ5ZBzz-_A7OfYSaAZPHB7g
p1238
(dp1239
g3
I628
ssV8-3AWD4V5HitvOtwnQCDIg
p1240
(dp1241
g3
I696
ssVgI9xDj8hiKdRN6qDy6O_ug
p1242
(dp1243
g3
I8
ssV3jF_fN98nhVbsol5yOqNQA
p1244
(dp1245
g3
I835
ssVzpVkBsBZGRZGl-gGj_uCSQ
p1246
(dp1247
g3
I433
ssVg1hPSh0rTKcBpICKMOpt-g
p1248
(dp1249
g3
I5
ssVXtVk1s9I7gzrrgZuaAyGRQ
p1250
(dp1251
g3
I171
ssVTganG8st3IE9uEmo-aGb6Q
p1252
(dp1253
g3
I82
ssVPBJvK7NUkDZLsXq6P96CNw
p1254
(dp1255
g3
I604
ssVJpytS7FOJQ1UkrVtcVJ0rg
p1256
(dp1257
g3
I29
ssVKE8gK3Trqbk8Y_q9REdYlw
p1258
(dp1259
g3
I557
ssVHpKLR1mrb634jCnTXQr3aA
p1260
(dp1261
g3
I128
ssVzKOKtdCytj3wRoh3omSw8g
p1262
(dp1263
g3
I444
ssVsrwjDH2hYFbQrR0ZH8s7cQ
p1264
(dp1265
g3
I846
ssV4GJWpmNh6RIe0AW4wj8PEg
p1266
(dp1267
g3
I348
ssVkgsx5zQLgoxJSqn0pxsehQ
p1268
(dp1269
g3
I168
ssV3L4BtRrMEvAWpUXtoQ-cZg
p1270
(dp1271
g3
I400
ssV1MywGdJ5wFWsN9M4XexAtw
p1272
(dp1273
g3
I646
ssVk8SnKLLlnCft0Wfok-4jsA
p1274
(dp1275
g3
I938
ssV3OxuTDJmqA6zTIrXFWG39g
p1276
(dp1277
g3
I707
ssV2TPvlCjRfZlo42ZNG-F44A
p1278
(dp1279
g3
I554
ssVhy_C0U75FpVaPVkkEflPXg
p1280
(dp1281
g3
I70
ssVWJhG3YGrc72Lncv0ACNbwQ
p1282
(dp1283
g3
I544
ssVeEKa2FEP9rKwdoZ6thYyNA
p1284
(dp1285
g3
I197
ssVEjeq3V3-BrhO_4iwWmVBag
p1286
(dp1287
g3
I820
ssV5OofuHNtDuEI-XbN7hbPzA
p1288
(dp1289
g3
I440
ssVLIl5vcUHRkZlhBS5H5uzdQ
p1290
(dp1291
g3
I593
ssVwPmKOwVRjyADg8dBTnNEIg
p1292
(dp1293
g3
I268
ssVzKWGQ2kbJx8qwpfc9eIxig
p1294
(dp1295
g3
I140
ssVlsY05eqfv9KPFbRCJrw_fA
p1296
(dp1297
g3
I181
ssVo2OPLZqAWmVmXJi5rY7Q7A
p1298
(dp1299
g3
I458
ssVemsL-X5iCF2VNNB7mCpI9g
p1300
(dp1301
g3
I310
ssVE9vZVCahU4eN1wrra6J_6w
p1302
(dp1303
g3
I296
ssVNOrb1STvRGm0Uy_XoMDe4g
p1304
(dp1305
g3
I422
ssVvn3lecMsL3kXVe-7hg3gLg
p1306
(dp1307
g3
I711
ssV_v1DmsDThDSRjBwmiRVbnA
p1308
(dp1309
g3
I462
ssVYVK9az5yUFbpQchy0DYUeA
p1310
(dp1311
g3
I772
ssVuEWZl4BK_Tde6pKxNjXy2g
p1312
(dp1313
g3
I116
ssV8ijB1-OsfKTncOLrEmfGFA
p1314
(dp1315
g3
I743
ssVyzxNvgDmp_NqfVBk_ORPHw
p1316
(dp1317
g3
I592
ssVC6cNYbofM5kpH3jdat9Xhg
p1318
(dp1319
g3
I881
ssVuerxfEFUMmMhO3Ie-50jmw
p1320
(dp1321
g3
I870
ssVR6OdqGQTtr2aDb-KWqHtxw
p1322
(dp1323
g3
I248
ssVzV-m715h7mTBwSORtn2tQQ
p1324
(dp1325
g3
I619
ssVewvsoOiFqN02y3O980VMvQ
p1326
(dp1327
g3
I217
ssVoOayyTrVO-PbVeXXsh_JEQ
p1328
(dp1329
g3
I80
ssVGB3xbyiaQSX_7mPfx6HOoQ
p1330
(dp1331
g3
I793
ssVwM7VQJ2SXIQWEDTEokG99g
p1332
(dp1333
g3
I839
ssVApWNDrDgb1Os9_tIoi2C9Q
p1334
(dp1335
g3
I93
ssV_lvBXBxpW0AFO3TQ4_yPzA
p1336
(dp1337
g3
I14
ssV8GyWisZIR-bT8B_ajybj9g
p1338
(dp1339
g3
I879
ssVhi_thAZJUhMxZ7wSCfC-eg
p1340
(dp1341
g3
I764
ssVfJBIsEiyC7DYh9HvMDSs3Q
p1342
(dp1343
g3
I450
ssVdmsNzWTbpo5LjIbcLAwBsg
p1344
(dp1345
g3
I357
ssVerbP5yIs1tzCm8D4t-HGbQ
p1346
(dp1347
g3
I663
ssVuYqiXQGB6PslC4SThE1ASg
p1348
(dp1349
g3
I933
ssVgb6zSqA3OfETc1bgazDLwg
p1350
(dp1351
g3
I69
ssVwbgYN_HdygKk9id4rK6HrA
p1352
(dp1353
g3
I903
ssV7FM-XTds11h6SiqY3ciJIA
p1354
(dp1355
g3
I965
ssV5fiC7aSgkqzGX7aN0JA3QQ
p1356
(dp1357
g3
I996
ssV-4bjYLtWgqlY-tbv9VMeUg
p1358
(dp1359
g3
I801
ssV8vq8vlwxW4EdqtUHyiayMg
p1360
(dp1361
g3
I979
ssVk71n8bELfnhMeC63xhUxzw
p1362
(dp1363
g3
I829
ssVaO2PpD3dhn5kmwyr_QUh3w
p1364
(dp1365
g3
I103
ssVT3yR0xYaj_eibS385G_R-w
p1366
(dp1367
g3
I49
ssVALhS3YlrJz9de7RiwIpkDg
p1368
(dp1369
g3
I685
ssVnbxsXJHWdrT11WfvV00Z6g
p1370
(dp1371
g3
I381
ssVpjoghjb0ZcuDWHvz02dSVA
p1372
(dp1373
g3
I987
ssVJSq38lWav5u3zIsdL9Bb6w
p1374
(dp1375
g3
I799
ssVi50BnBzVzmJp1d9g4l8_cA
p1376
(dp1377
g3
I530
ssVLyg-0HILobCBdwE4bcFs5g
p1378
(dp1379
g3
I773
ssViCFZ6zZkq1ok1oQSX6TArw
p1380
(dp1381
g3
I316
ssVEGqEVz2j1t9wQ4DmmzEeAg
p1382
(dp1383
g3
I488
ssVaanQAeF8EDsbZ6l5YddEsQ
p1384
(dp1385
g3
I854
ssVScmPX9SnTliI76fhGFcCXw
p1386
(dp1387
g3
I647
ssVJFM0o9QJSvdAmXohjYqRuw
p1388
(dp1389
g3
I976
ssVnTGmjSIzFfSdfGOa3DG77A
p1390
(dp1391
g3
I548
ssVWaOMffVE4v1QpKor91Ap9w
p1392
(dp1393
g3
I936
ssVeTorLt5F7PnmSRX8e9tu5g
p1394
(dp1395
g3
I558
ssVDhzlwv04ewkviiOzpWgyiw
p1396
(dp1397
g3
I238
ssVa-ni6SmhJ6TzCS3auPpxTg
p1398
(dp1399
g3
I712
ssViPDBT_k_9NL_b34hpjy-gg
p1400
(dp1401
g3
I51
ssVzE0yNDf_URTwGsuvUG22KQ
p1402
(dp1403
g3
I215
ssVY6nFfP2v17y5hqEmZp05Mw
p1404
(dp1405
g3
I691
ssV9tAH3Vl312bwk6Yw0cnP0w
p1406
(dp1407
g3
I838
ssVuG3SSPUfkUGLzHAUGDtg8w
p1408
(dp1409
g3
I121
ssVY4ZWKhIexno-odJiQKE1aw
p1410
(dp1411
g3
I326
ssVKf5tnfXtIy-torOrHY3nIA
p1412
(dp1413
g3
I276
ssVVlMTcr99IXpqBKBH5rg1VA
p1414
(dp1415
g3
I868
ssVH0nYlvGjMA9szTaqIwTwpg
p1416
(dp1417
g3
I159
ssVyaU-PG_jQzliri3VFS29dQ
p1418
(dp1419
g3
I597
ssVxNWuI4DDw4NMMEXnpy-g9w
p1420
(dp1421
g3
I152
ssVaWHX1QdKbSgSkMA9N0a8MA
p1422
(dp1423
g3
I659
ssV-pZBAoPnG5DW32qOzbJxfA
p1424
(dp1425
g3
I89
ssVdK60RfuSM5lFdOcCWBA9ug
p1426
(dp1427
g3
I432
ssVD9ry7SJ5vtsOc04b5zqkbQ
p1428
(dp1429
g3
I650
ssV4VaskLw9ByZSJhRnC4mwJg
p1430
(dp1431
g3
I79
ssVHB3GhY827PMyN-UBOZXpPA
p1432
(dp1433
g3
I212
ssV-50fOYTeDK4_9m4gZLHaIg
p1434
(dp1435
g3
I607
ssV1Bezt5unHiEaZsQDmupUgQ
p1436
(dp1437
g3
I222
ssVD5mlAUZMCQ8yc0PxOgGpsQ
p1438
(dp1439
g3
I476
ssV24j1qZnTaJHHeNSHzi5ziQ
p1440
(dp1441
g3
I852
ssVajlsUu-QukZC8P4qD8iI2A
p1442
(dp1443
g3
I496
ssV6YyyBrTw-FaF4Mit22uk_Q
p1444
(dp1445
g3
I273
ssVjT9RFCRhc_HjcwIfUT-eFg
p1446
(dp1447
g3
I856
ssVS8A3ZuhNEb9CIYvUQlGI7Q
p1448
(dp1449
g3
I409
ssV0ALGfIEnbtKMxjfCjGSN3g
p1450
(dp1451
g3
I931
ssVLMlBCXFVAHdPnSA94jc6PQ
p1452
(dp1453
g3
I943
ssVISSbSYAIhvX3Ud4t8Tnczw
p1454
(dp1455
g3
I977
ssViPnpD62l5LUL7WXaI3SJFA
p1456
(dp1457
g3
I909
ssVhl708f5Fr1A5PCZSrILCfQ
p1458
(dp1459
g3
I267
ssVVh7HNMDLVVmnnBsIe7i7Qw
p1460
(dp1461
g3
I393
ssVX6PWVc-wag3mSP_4cme2Hw
p1462
(dp1463
g3
I511
ssVtDz2oZNtKABUj4MNF5aVCQ
p1464
(dp1465
g3
I196
ssVJ46JyRtoOa2iITZbG8VhkQ
p1466
(dp1467
g3
I899
ssV8NnOr30vSjXJF3BAWgLLMA
p1468
(dp1469
g3
I824
ssVJCfHBL4zGkPjtKVd9hS_Bw
p1470
(dp1471
g3
I257
ssV4YzRc68mopn4s6s8KZx7Ew
p1472
(dp1473
g3
I237
ssVyZXQ0kAoQNYLz5md93VsOw
p1474
(dp1475
g3
I836
ssVpano9IginH1phYO5oQbnVg
p1476
(dp1477
g3
I536
ssVJ3I2NClEbD1Xr8lOdjxlqQ
p1478
(dp1479
g3
I451
ssVP94v4KaofsUqaffU8ffTmA
p1480
(dp1481
g3
I825
ssVF9gLnpnWD5q8hKPmFhza-Q
p1482
(dp1483
g3
I378
ssVclmzHZrQXw8qu8WwROFr6A
p1484
(dp1485
g3
I501
ssVfTaHpK5KXUre-EI8eWP82g
p1486
(dp1487
g3
I368
ssVAbYhAHw5uI4mEfx0UPIWIQ
p1488
(dp1489
g3
I822
ssVOR1ift7_9OHEU0z0Gagn4g
p1490
(dp1491
g3
I654
ssVhfmI1D0iyB8HL-yQzrKaiw
p1492
(dp1493
g3
I589
ssVHW-cL93tvU7qng1sZueKWw
p1494
(dp1495
g3
I95
ssVgpMsx8fRxIJll53tvF65LQ
p1496
(dp1497
g3
I461
ssVTTC8b2uayW0QznMnaXHP6g
p1498
(dp1499
g3
I129
ssVhWPOj78yi6CQub26elkHHQ
p1500
(dp1501
g3
I805
ssVStV0GklOU-zGAT4t0NqThA
p1502
(dp1503
g3
I396
ssVvM8dDV8H94c-kMQsmSMWAA
p1504
(dp1505
g3
I954
ssVUufvv9CBpJmPRXDQTSBKYg
p1506
(dp1507
g3
I342
ssVhkZfGhWp32V1zFYdxONQkQ
p1508
(dp1509
g3
I178
ssV2OPRh9VL75F-_ifjTdCcIg
p1510
(dp1511
g3
I479
ssVSmDl7nRUwScvZvkILM9HpA
p1512
(dp1513
g3
I153
ssVtv-KrSTGhaHAIupI-keEFg
p1514
(dp1515
g3
I888
ssVqFecIwj9hMBqaRl89li_5g
p1516
(dp1517
g3
I833
ssVM0_BP_ie-zlFGZobbClYaA
p1518
(dp1519
g3
I517
ssVaPLAmJ9murDU27_C_08hWQ
p1520
(dp1521
g3
I875
ssVxWVgoNp_oUP_gMRMO8iElw
p1522
(dp1523
g3
I343
ssVlViWWAZLMGz_TMKfrLon-w
p1524
(dp1525
g3
I849
ssV3PleJJEDyGLIWqaW7JlTyQ
p1526
(dp1527
g3
I90
ssVn49V372USlnwgzDOo0VEbQ
p1528
(dp1529
g3
I355
ssVfbkk38GHlnP_q5mUnVlwKw
p1530
(dp1531
g3
I828
ssV0clhhTKZhUSUyf-Ivkcl_Q
p1532
(dp1533
g3
I124
ssVNTSDlVbBNw34dV1t7eFRNw
p1534
(dp1535
g3
I808
ssV_j4PdUTEw7N3NXQM628ZKA
p1536
(dp1537
g3
I341
ssVa37j8KTozUX4wYEjiZOfaw
p1538
(dp1539
g3
I561
ssVq93UhMDsW5zpvtdUvlXZug
p1540
(dp1541
g3
I780
ssVfcvP-cuAN_h3Xu_uQOJDLw
p1542
(dp1543
g3
I842
ssVqvEErUS-Xkssg9oKn9xNZg
p1544
(dp1545
g3
I788
ssVYrA3GdmsmafmeRYqSoPxyA
p1546
(dp1547
g3
I300
ssVBOA6IMbiZB2RVZFp-TTiKA
p1548
(dp1549
g3
I185
ssVp_n5gwvyOGnGbCyAYsj74g
p1550
(dp1551
g3
I53
ssV0Eck5WWuXkzee6uvqMy6zg
p1552
(dp1553
g3
I270
ssVnuVNtgN6Y3YV0SQ2_7DWYg
p1554
(dp1555
g3
I336
ssVuBp2Jmip2qXQ0iWHUDY9sQ
p1556
(dp1557
g3
I449
ssVcm_rBQTpDoqgKeZAgZB0hg
p1558
(dp1559
g3
I602
ssVQVEurU1FUq3z3DwLWI98Kw
p1560
(dp1561
g3
I338
ssV0rI5H6cZ3sUt3llaOqLJkg
p1562
(dp1563
g3
I572
ssVywqTxyN1mjsztV4S0E1HLQ
p1564
(dp1565
g3
I579
ssVh5v4Wcx1H6kJ9-LhOvnoZA
p1566
(dp1567
g3
I418
ssV132m3lRoO1tw3rdlGvYF4A
p1568
(dp1569
g3
I513
ssVjzNujHInKuFQCyf7UECIjw
p1570
(dp1571
g3
I570
ssVnT_87U8iE-H6ULTXBkfcQg
p1572
(dp1573
g3
I947
ssVx75NgCvjLIrp2qS32umihw
p1574
(dp1575
g3
I349
ssVbbXZST_aMTBCKNEqyCM_3g
p1576
(dp1577
g3
I335
ssVd-0HwKEMHmpbq8wAP_0_Dg
p1578
(dp1579
g3
I925
ssVgiPXxkQyyVhkvfqas2o6fw
p1580
(dp1581
g3
I844
ssV--hWC2FYuvaItr5-_Hp8Mg
p1582
(dp1583
g3
I218
ssVKntKztuTHOnSh4Oq4C1NcQ
p1584
(dp1585
g3
I20
ssVMZyNADoZlyPQ-bEIe6innw
p1586
(dp1587
g3
I713
ssVkLx-jpNgLtgNRRu2Y1tpIg
p1588
(dp1589
g3
I565
ssVuNHKvURJfvXDyO6-JIXDNw
p1590
(dp1591
g3
I715
ssVr5vDrlFu45VK6kW4vyuvMg
p1592
(dp1593
g3
I959
ssV550cb6mWIDtABn4EH8vg3g
p1594
(dp1595
g3
I141
ssV07pUh-U0FXJ9XYhQbZoJIQ
p1596
(dp1597
g3
I750
ssV_9fi5b4KGX6xZWbOGN4d6A
p1598
(dp1599
g3
I957
ssVY_nk4KhoHlkd1WRKCfIhuA
p1600
(dp1601
g3
I391
ssVDupQVr6x98F2fTDICPz7ww
p1602
(dp1603
g3
I644
ssVzjX3Bph1uSWtrhaLCuyC2g
p1604
(dp1605
g3
I953
ssV1E13KtzbFzo2mXB0hZm1EQ
p1606
(dp1607
g3
I813
ssV9Dks5wGHKa8fHXQaZ9Xh5Q
p1608
(dp1609
g3
I923
ssVEvZ8syraeQq-DIorclZk4g
p1610
(dp1611
g3
I474
ssV935SvZzP-ueGJ5hLfIe76Q
p1612
(dp1613
g3
I448
ssVPDNQ2tOM42mBankQlPlUYg
p1614
(dp1615
g3
I918
ssV06FvM-0mpGxQSfoV4Em7bg
p1616
(dp1617
g3
I106
ssV85URiCpfn2n_2_gUFTdODw
p1618
(dp1619
g3
I642
ssVRxZXO2dhKSUp7YX6KrVe2w
p1620
(dp1621
g3
I463
ssVX0VDOicOaSMTLYRfyrLdpQ
p1622
(dp1623
g3
I39
ssVc8brOoAF-73h_O_3CnVmag
p1624
(dp1625
g3
I41
ssVQnMPMD8Nh3ErZGfMRGAeYg
p1626
(dp1627
g3
I896
ssV4TNsxnEkWWarH305tNLleQ
p1628
(dp1629
g3
I700
ssVN_KGQ-7-TN44yWU-WByV1g
p1630
(dp1631
g3
I915
ssVq0pk09aUIGSUj0OK_nr8GA
p1632
(dp1633
g3
I727
ssVpJFcE-V6jXI141oXXXUCrw
p1634
(dp1635
g3
I261
ssVPSeJKgfNRUSh6GuVnr1E1A
p1636
(dp1637
g3
I67
ssVK_lEGOOP_2VhaJHHlrdk7g
p1638
(dp1639
g3
I869
ssV82KGbjsK4du18MGEu1RzbA
p1640
(dp1641
g3
I883
ssVKJRXVZ9T4tzpVmHvYmFPrQ
p1642
(dp1643
g3
I199
ssV7tPJMdCL8UDwg7otQGAXdw
p1644
(dp1645
g3
I537
ssVpQaIJoVUwFnTMoT9USnkGA
p1646
(dp1647
g3
I568
ssVV1po7TjUzklCpdZ3cOp4Og
p1648
(dp1649
g3
I150
ssV38YR6u6T62hgpwdUAeyyIw
p1650
(dp1651
g3
I725
ssVlSukjnlYV0rdWWGSn4eGNg
p1652
(dp1653
g3
I339
ssVekVcadzsYQcUzaVmUgioZQ
p1654
(dp1655
g3
I60
ssV-uYutd6Y-BxIl3HOIsCZ7A
p1656
(dp1657
g3
I184
ssVIE_nJq65Qpso5fN4tG9zjQ
p1658
(dp1659
g3
I173
ssVJlO00iYsaV-aKpgB6PSx4g
p1660
(dp1661
g3
I192
ssV__ijoBvRgmfpLRLfBtD9qA
p1662
(dp1663
g3
I989
ssVxqtbShA1yX-zD4LdQQBogA
p1664
(dp1665
g3
I230
ssVtx3WZJMD6vbFVWgpm-OzDA
p1666
(dp1667
g3
I904
ssVBKSE3pUxYoq4r1mWbRBEOw
p1668
(dp1669
g3
I395
ssVC1cv0JYSBCJ-Qw4zX6ZUoA
p1670
(dp1671
g3
I252
ssVKYr41XbZXHX_1eWHxkIJeQ
p1672
(dp1673
g3
I244
ssVtemqFUb-59a-H8awz2e2Ow
p1674
(dp1675
g3
I914
ssV1q7w4vkNOj0JvJzY2uQxTA
p1676
(dp1677
g3
I718
ssVJB-2f1aGRTOjrc42RJ4I-Q
p1678
(dp1679
g3
I525
ssVSTRH5HCQ9lkCMNy5R7pq9Q
p1680
(dp1681
g3
I94
ssVlqJkIl9onCwEhocSDCYDGw
p1682
(dp1683
g3
I545
ssV7IWNzfnDVs16lcQaoOk4lg
p1684
(dp1685
g3
I87
ssVE7tozhm23vJSKBfozHWEMQ
p1686
(dp1687
g3
I837
ssVEROQwdBzr2gHMOTSeERkmQ
p1688
(dp1689
g3
I693
ssV5xjutHCOYBMBWGnOoSgEKg
p1690
(dp1691
g3
I306
ssVlvjvPFW1tBymHHN5Qank3g
p1692
(dp1693
g3
I670
ssVut4EWwnnnWa7xhSstEgE2w
p1694
(dp1695
g3
I232
ssVXZR18aCHdKbZRkrWtBIsUw
p1696
(dp1697
g3
I88
ssVtSaji3-lHdlkAenZa8YGIA
p1698
(dp1699
g3
I182
ssV7Rfg_PLtU-Kny47JFj3jYQ
p1700
(dp1701
g3
I532
ssV5j7qmDZTAetaH0yXFnAFyw
p1702
(dp1703
g3
I83
ssVrIPHe7Sk3rU3_K_O7Uqukw
p1704
(dp1705
g3
I304
ssVJiawW3Z3YL9i6mE7LQn0PA
p1706
(dp1707
g3
I278
ssVWUyljiflWc2i8K0ZsL_Nyw
p1708
(dp1709
g3
I198
ssV2u_x05V1DbhXssdFzMXcGA
p1710
(dp1711
g3
I142
ssVw5tl4s_SJ10RNxD5LYa-Lg
p1712
(dp1713
g3
I506
ssVRqIMYSUznnA9r_e_ZnfykA
p1714
(dp1715
g3
I744
ssV1kc6419aye0KDBV-SH9aGQ
p1716
(dp1717
g3
I580
ssVVq7mSrFyHdu8jtXuRjiYBw
p1718
(dp1719
g3
I498
ssVAiAUF1pkXWF-o6US7wV23w
p1720
(dp1721
g3
I91
ssVE83jZ7j07Hx-RcRiTbA_kg
p1722
(dp1723
g3
I669
ssVR7q9DeuXA4-nLNnoctDlPw
p1724
(dp1725
g3
I187
ssVyOlUyTVoNBuouqCtKfDe0A
p1726
(dp1727
g3
I287
ssVhm6KwsSUEE5wyKLr6ZDyaA
p1728
(dp1729
g3
I737
ssVr6ZJXv_v2dhU9vxejhVSDg
p1730
(dp1731
g3
I426
ssVnF98Wf6ytap7wl58D3oJwA
p1732
(dp1733
g3
I331
ssVaAfkYj5DacC91NqPpU4iow
p1734
(dp1735
g3
I705
ssVq5SLRRYLZeSeW63-HPQ3Gw
p1736
(dp1737
g3
I499
ssV79MhROSJ1U8KBCupx7imRg
p1738
(dp1739
g3
I566
ssV8JS2Abr9j_BX9EVDRRUh4Q
p1740
(dp1741
g3
I453
ssV2z8bTdD1BhP-dH4uhulStA
p1742
(dp1743
g3
I509
ssVNBWQSWjhqLeGBf750WwFMQ
p1744
(dp1745
g3
I327
ssV6AuI-RB8zGjT2f3iW2r19Q
p1746
(dp1747
g3
I464
ssV39Dq_Wx0sbudqrJXT-a73Q
p1748
(dp1749
g3
I15
ssVjb9Gh7ALWdxeYl7vEcXYBQ
p1750
(dp1751
g3
I472
ssVFa0cKTkPhxdYi9HpcuQh8g
p1752
(dp1753
g3
I102
ssV1eqABVIZN5jcroowp3_oEg
p1754
(dp1755
g3
I587
ssVsqPU4NEndLF4EDuHTO-eUg
p1756
(dp1757
g3
I886
ssVy8Q9ZF_R0VJFpHt8ML8X9g
p1758
(dp1759
g3
I722
ssVeb6sH9Mn7ooUGuv1L0sUaw
p1760
(dp1761
g3
I736
ssVR8--JI6KuOyt34GBgoEzow
p1762
(dp1763
g3
I452
ssV-DV5uxeFoIvEo4eqSzkfIQ
p1764
(dp1765
g3
I388
ssVo7um5jfDUkF237SIGP7DDw
p1766
(dp1767
g3
I204
ssVaRgTBYbG-eZipFRIipGlrA
p1768
(dp1769
g3
I600
ssVJ5oUCKzslgQDg6ByXveDCA
p1770
(dp1771
g3
I66
ssV1G7v15k03lh2Y6f2O1YKsg
p1772
(dp1773
g3
I19
ssVRLmUj1QGMz2dLBcdayuBiw
p1774
(dp1775
g3
I775
ssVsW9EBhiRYOneugKBCQbhIQ
p1776
(dp1777
g3
I588
ssVlaQyrQhNJ7AVH7adzb5FiA
p1778
(dp1779
g3
I802
ssVa8SprmfnrFmIfDuhC3BfDA
p1780
(dp1781
g3
I76
ssVV439aM54psPKCUPycjgzug
p1782
(dp1783
g3
I633
ssVARl3It1h6bbi_BhMOQ7XjA
p1784
(dp1785
g3
I655
ssVjJlgHIU9ltclRKnhswpCvg
p1786
(dp1787
g3
I370
ssVFW67E8UxmR3sS3G7HrLFJA
p1788
(dp1789
g3
I982
ssV-twmKuBk52lIrsJlP9gXZg
p1790
(dp1791
g3
I717
ssVu96qtvQtEUYEftBGlrPXpg
p1792
(dp1793
g3
I941
ssVcK_yP1K6zw1Mr4GD_EX-AA
p1794
(dp1795
g3
I701
ssV3zCgzdkek0_IDeRUWyx_Kg
p1796
(dp1797
g3
I898
ssVOlKtvqN_1y62p6mkYCPSlg
p1798
(dp1799
g3
I417
ssVXXZiOkma4VBeZTGhbGdkNA
p1800
(dp1801
g3
I847
ssVvCFSI4C8FPTHYuk74XJaWg
p1802
(dp1803
g3
I405
ssVDVUy3pGA0yKwn7SaH0S46w
p1804
(dp1805
g3
I188
ssVvzwS0Hy3J5r3URvQ3eJr5A
p1806
(dp1807
g3
I905
ssVIU9ArEUIijrMqNEgVKZDuw
p1808
(dp1809
g3
I785
ssVNh9Nh26tHHwmFigMOO-CUw
p1810
(dp1811
g3
I995
ssVg4gHCEcgbFqrK4J-XqvYug
p1812
(dp1813
g3
I598
ssVAC84oF7Ciuw7M52RszgWUA
p1814
(dp1815
g3
I48
ssVL2t_ZoyCQnXzgO1uE7L1Nw
p1816
(dp1817
g3
I623
ssVHQ2Fn7nJIFZaaexkpJXjvw
p1818
(dp1819
g3
I454
ssVXo6W4Mk2fqsO30WTJmrkFg
p1820
(dp1821
g3
I765
ssVPF-Kl6KSdVJFbiQdI1IufQ
p1822
(dp1823
g3
I900
ssVlKfYxdROcuxmADXub5CyEA
p1824
(dp1825
g3
I407
ssVeDw9HamGz_mxaVbBEyfByQ
p1826
(dp1827
g3
I134
ssVYTrENuteaA0cc5JPkmAHlw
p1828
(dp1829
g3
I912
ssVUopyPna6Cm0JjuiFCibkYg
p1830
(dp1831
g3
I777
ssVStr5rjklAsfi64W1C9KB5w
p1832
(dp1833
g3
I443
ssV5MklMpwmxJIinDORy-Li-g
p1834
(dp1835
g3
I921
ssVZubK3U5PlTWy4VIQG_Wpzg
p1836
(dp1837
g3
I7
ssVuT7-7UnF06vj-xTNxFIfIA
p1838
(dp1839
g3
I531
ssVZweZv5fEsl1crf8zG92W3Q
p1840
(dp1841
g3
I172
ssVtDqvTbunSbk5pmpd2Ot_Jw
p1842
(dp1843
g3
I952
ssVSVhMOPgzS69RjoaHNhihkg
p1844
(dp1845
g3
I851
ssV8ZchNx1nHZMXe1WpVTbDcw
p1846
(dp1847
g3
I657
ssV6SxnRYFR3GUzGREKSttxJg
p1848
(dp1849
g3
I567
ssV4GgRyG2HZCyNLZV--x0D6Q
p1850
(dp1851
g3
I353
ssV0Jlviq1YD76N-WK_GUeDMw
p1852
(dp1853
g3
I791
ssVyhAAeh611cpCksu3PpHloA
p1854
(dp1855
g3
I606
ssVAHofX4iEP8vKxJtvaarC0Q
p1856
(dp1857
g3
I229
ssV89fJ3Mox4eANx0aq9JMsbg
p1858
(dp1859
g3
I735
ssVmzAif6d6CvrOpnJ5n-nEBw
p1860
(dp1861
g3
I234
ssVCoY1DKt13ZZyq8B1TlK0sw
p1862
(dp1863
g3
I960
ssVUfPzhC27R744fh2GWvdkkQ
p1864
(dp1865
g3
I365
ssVU4vvxA_sY1EDB2JuJjHB8w
p1866
(dp1867
g3
I148
ssVeleS0QegOhi-XT7e65DHVA
p1868
(dp1869
g3
I126
ssVkBlISlM0QgdkS_a15aRMkA
p1870
(dp1871
g3
I940
ssVP13sK8D1mr4DnM9Fnm4nTA
p1872
(dp1873
g3
I68
ssV90a6z--_CUrl84aCzZyPsg
p1874
(dp1875
g3
I861
ssViqqNn0htkAXBxqOyTRZYGg
p1876
(dp1877
g3
I274
ssVMmPOU8kbuwkE4NedXe-qZw
p1878
(dp1879
g3
I492
ssVtSBM_fDAOkW6rYp9NeKZ6Q
p1880
(dp1881
g3
I591
ssVkqbAR7hVxbENHTNJIkGH2Q
p1882
(dp1883
g3
I63
ssVI83zf35JTmvZDrPKdkcYZg
p1884
(dp1885
g3
I543
ssV9STS2LaNLkrKq84c7IyAKA
p1886
(dp1887
g3
I191
ssVfCrETXpDvnS7HL_6CJ4yog
p1888
(dp1889
g3
I748
ssVge1JTvFwVmp7BUmOHP_qsg
p1890
(dp1891
g3
I143
ssVrxQhpWH-wOV7RoT4iMkMQA
p1892
(dp1893
g3
I431
ssVal01PQM2YCnACWm-SRsKEA
p1894
(dp1895
g3
I731
ssVNdcI47w2nbfw8CPtP3QPqQ
p1896
(dp1897
g3
I749
ssVoDxw6N-rQuUdshBj3yTYcw
p1898
(dp1899
g3
I733
ssVlQaZAlAjQ1PiI_uV5O2vPQ
p1900
(dp1901
g3
I425
ssVy3d4v0x-vD10hw-O0YKa1Q
p1902
(dp1903
g3
I608
ssVFzB6qNc9aat-h2hYUcrbEA
p1904
(dp1905
g3
I695
ssV4hR-tE1PYvp7Go5a8s8pmw
p1906
(dp1907
g3
I507
ssVLzEX3DYCctzHDc_lWy7BwQ
p1908
(dp1909
g3
I817
ssVEgusfsNgndly9gGZKXrmsw
p1910
(dp1911
g3
I978
ssVb_4No81XPBhkT6K1H18pIA
p1912
(dp1913
g3
I710
ssVoT6XHjvPHmQ0EdQpuOHrPQ
p1914
(dp1915
g3
I380
ssV-A0CPl7ipFe0HNfSGIyrYQ
p1916
(dp1917
g3
I291
ssViEuLOmNVXgwrn1fkqRedsA
p1918
(dp1919
g3
I162
ssV5Pcmp6vX_7XZ5RFtlC5hyA
p1920
(dp1921
g3
I399
ssVlf_dhzlvKQb4f_CVpOhdKA
p1922
(dp1923
g3
I372
ssVKLekdmo4FdNnP0huUhzZNw
p1924
(dp1925
g3
I210
ssV9hRxQvRm_kanUNauoXCSpw
p1926
(dp1927
g3
I906
ssVczRDJwMKXhrLSt6NqWmFlA
p1928
(dp1929
g3
I322
ssVdpamrzfUzCAIebh6r8IWsg
p1930
(dp1931
g3
I697
ssV3k7SY2V5MrVwYIsMexTSfA
p1932
(dp1933
g3
I573
ssVJAzJXjfXDuMpQ87QFfjrZA
p1934
(dp1935
g3
I535
ssVLda1_6Rkfe4P1J7XibaY4A
p1936
(dp1937
g3
I65
ssVTocDkq1UljoZ9_Q0cR-3eQ
p1938
(dp1939
g3
I117
ssVMFoVryP-K-KqquPgwaxUgg
p1940
(dp1941
g3
I751
ssV_qDCRA8PTafuoXc0VWyBlw
p1942
(dp1943
g3
I3
ssVAWa7TBTRDBvsdNOS_TEnmg
p1944
(dp1945
g3
I518
ssVnOA4lSY3D4xsUXJBT4H0pw
p1946
(dp1947
g3
I36
ssVZRQdOIIhzrzE6sc3emgM-Q
p1948
(dp1949
g3
I992
ssVYBVdmm5zlpLpi2_DiKsd2A
p1950
(dp1951
g3
I942
ssV9a6ncXGd5fFQjp1AU4ZMZA
p1952
(dp1953
g3
I622
ssVZVgo1ey76GIiYy8cn4hGqA
p1954
(dp1955
g3
I745
ssVxNtYQ8K1To2Gqqm_4xcBDg
p1956
(dp1957
g3
I314
ssVFDKDLUNbhnpsRWOHkS1nYQ
p1958
(dp1959
g3
I470
ssV0vsXoyFeNNRVTNDUqJnfIQ
p1960
(dp1961
g3
I223
ssVjlDJisGSsoJfL9FZbAqH_A
p1962
(dp1963
g3
I495
ssVOqisxqKDGaZwEvLm1OG4dg
p1964
(dp1965
g3
I286
ssVAIWn658mehwltRRQwe-RHg
p1966
(dp1967
g3
I826
ssVMD-04cL1uycJkKtJMnnoYg
p1968
(dp1969
g3
I392
ssVyH1daviGmtbuIaBobyYtWg
p1970
(dp1971
g3
I247
ssVeUu8yuHNVwshKdj2yvvbcw
p1972
(dp1973
g3
I865
ssVCPesvomG6DvIcAGR2tXCrA
p1974
(dp1975
g3
I333
ssV8WdFsaZUlWbtzPU2IE3h7g
p1976
(dp1977
g3
I551
ssVB-4_1ATtqCuFlKk1c24b2w
p1978
(dp1979
g3
I37
ssVuzTmh1jCveKLvUjcfN-PQA
p1980
(dp1981
g3
I522
ssVtRBC8zo48KbWIJn_hEG4mA
p1982
(dp1983
g3
I401
ssVzz4iaqRAIT-wju1J8wicgA
p1984
(dp1985
g3
I371
ssV4VeebV2Ep6gGCdLyeIBUTg
p1986
(dp1987
g3
I843
ssVf01B5tRtqf3k6ak1pPSAWw
p1988
(dp1989
g3
I17
ssVog3-qOKBvWLbm7FowP7WgQ
p1990
(dp1991
g3
I939
ssVhdK42L495_y7y7Pr9egbKw
p1992
(dp1993
g3
I981
ssVrJ9Xa_FJawc10Zt2oX_0dA
p1994
(dp1995
g3
I590
ssVT9wO3ug8vY2vOAUyCueeIw
p1996
(dp1997
g3
I226
ssVH8I48jAArQj5IYYBFPDwIQ
p1998
(dp1999
g3
I62
ssVjfXT_8J_EQnJVa4sJ3z6hg
p2000
(dp2001
g3
I428
ss.