(dp0
S'nXSBdhTe51X0es6NRhcO-w'
p1
(dp2
S'node_id'
p3
I18612
ssS'HZvh9bsWCBL2Bo_nM9EWmg'
p4
(dp5
g3
I10342
ssS'6wBiMbUKEWduMn3C4a3FPw'
p6
(dp7
g3
I8825
ssS'siFbh9YuG3kEUFdaMBOZUQ'
p8
(dp9
g3
I10400
ssS'LBW8xmpdMkxZ3ijUpnRnyA'
p10
(dp11
g3
I2459
ssS'7UhBV3q1JQLV3XC5OjmRNQ'
p12
(dp13
g3
I20955
ssS'0L8lRvOKbnbvmlp0QPu9eg'
p14
(dp15
g3
I25156
ssS'MRrrOvAdihfnsaHdNBb_cw'
p16
(dp17
g3
I19928
ssS'wysB0lvlJuSBwUAerJqjJQ'
p18
(dp19
g3
I27643
ssS'Qj00DvkDsWAxBZiWKLT2VA'
p20
(dp21
g3
I4680
ssS'qRcaq18LOdDllgqz69qElw'
p22
(dp23
g3
I28460
ssS'-NK4deQXwOK6lswzKKtXDQ'
p24
(dp25
g3
I12521
ssS'8BqEVekOsoEKuLh6ffHbLQ'
p26
(dp27
g3
I2374
ssS'4AjDuSsVYUZuRJU6as5l0Q'
p28
(dp29
g3
I6500
ssS'x-mSKVfXouDx3qQQjMAHnQ'
p30
(dp31
g3
I9636
ssS'k4kfGfvZyVUndQgFJNyD3g'
p32
(dp33
g3
I17593
ssS'ZPMxq310wDI5oBDBxIDBOA'
p34
(dp35
g3
I19277
ssS'scTZZpAce8aNSzwF407wNw'
p36
(dp37
g3
I12401
ssS'ocj5JHxeNeHnLqOLf6KuQg'
p38
(dp39
g3
I3400
ssS'zHKTOQkQS7Twd3m6d6RpJw'
p40
(dp41
g3
I7676
ssS'mtvir-5xHbFoymrMTJNkDg'
p42
(dp43
g3
I11795
ssS'-AhtIe5xQUUW7y9UMxo6cw'
p44
(dp45
g3
I28801
ssS'aklTOtGeeBxTh8s9CRseRg'
p46
(dp47
g3
I15404
ssS'1Q_8qRnuIsu9xMElnVg3RA'
p48
(dp49
g3
I4177
ssS'FopAKid3OBQQ-jVmY8HCPA'
p50
(dp51
g3
I19466
ssS'ghucXeAVEgBeTs0KKdg83Q'
p52
(dp53
g3
I17527
ssS'QN4xNZ1_AzEaqEYHYk8FBg'
p54
(dp55
g3
I11449
ssS'nggNtjoFnzRvmrWZXzoIbw'
p56
(dp57
g3
I28230
ssS'VoVVvrfGinpvnVvQNbJFLg'
p58
(dp59
g3
I26599
ssS'Ebi30JkOwUzAI-qRchF-xw'
p60
(dp61
g3
I5002
ssS'SNcO_V3sxu-2CrVGWjsFDg'
p62
(dp63
g3
I12763
ssS'mYEM5_NAVBkto88I_RF7ow'
p64
(dp65
g3
I14588
ssS'hAxvi2xMG5gAC9LZOePBQA'
p66
(dp67
g3
I694
ssS'eMlASho8zJah9oy2TASw8w'
p68
(dp69
g3
I26992
ssS'5aoPEjpxWR7CN7kdVjyQVQ'
p70
(dp71
g3
I26775
ssS'1MPAvelPljQBAqVTIEke5g'
p72
(dp73
g3
I6562
ssS'GZ8SFGydLYKfVQGBu2BvPA'
p74
(dp75
g3
I6135
ssS'wsouO79E-BW7lStwopkfjA'
p76
(dp77
g3
I1713
ssS'dxy__Uwtj57C6zoLWGw0xg'
p78
(dp79
g3
I5392
ssS'ZaZswEnDkHGEz3TmlRghdA'
p80
(dp81
g3
I11867
ssS'r2KPiKG0S3M3w9FvQbm_lw'
p82
(dp83
g3
I2055
ssS'4wB03cyIrbf_jLfodNFZoQ'
p84
(dp85
g3
I6756
ssS'nNr4hEet7h43szkdIwaXRg'
p86
(dp87
g3
I23375
ssS'MxqeNCYA0crr7fe0h5GbfA'
p88
(dp89
g3
I9191
ssS'1leNptPhiIuPG_gF1lOg_g'
p90
(dp91
g3
I12507
ssS'WWHRpqM41bC2lMHxeMYHMA'
p92
(dp93
g3
I30208
ssS'tmTxuDadTVc-KFyhvPuseQ'
p94
(dp95
g3
I22775
ssS'nJ6ggV7etIiK2QG9U8r2Bg'
p96
(dp97
g3
I14482
ssS'TrgCQ7q2i-lT4Gtp0IyjNA'
p98
(dp99
g3
I6725
ssS'3dUpHZLkNj-8XiWRGyF_Dw'
p100
(dp101
g3
I9307
ssS'49lK33nuV1dVj3l2Jto8Bg'
p102
(dp103
g3
I8791
ssS'sq0Z6GYKZ9TrKLP3tR9YKw'
p104
(dp105
g3
I20767
ssS'NR44MjPCAgyHKVUMY-WRGw'
p106
(dp107
g3
I27791
ssS'um1_9kj76263MrHLZf6OfQ'
p108
(dp109
g3
I7296
ssS'yvLFUtYbqSvh_bAAmAGhmA'
p110
(dp111
g3
I29085
ssS'1t9DDgGknL4ViFUS2aCs7w'
p112
(dp113
g3
I21474
ssS'CUqtEmjVwslAXXcephcFnw'
p114
(dp115
g3
I12921
ssS'1fERJYlHjZx-dn7NMrOKvg'
p116
(dp117
g3
I26082
ssS'2LCrT_BOJvGV4xi_lmoRcA'
p118
(dp119
g3
I7879
ssS'nBqU_AHXCayr3BQWzfyB5A'
p120
(dp121
g3
I22547
ssS'Xt-fcXSOhxjz70PT3AL-tQ'
p122
(dp123
g3
I19858
ssS'sEWeeq41k4ohBz4jS_iGRw'
p124
(dp125
g3
I29732
ssS'fkUuqu8br1N6d0HAZtzZVg'
p126
(dp127
g3
I30030
ssS'WLrMAZkZT8CcqPaz5ugyPQ'
p128
(dp129
g3
I24832
ssS'nuVNtgN6Y3YV0SQ2_7DWYg'
p130
(dp131
g3
I336
ssS'VuZXT6oI2JwW15xTm7OtVA'
p132
(dp133
g3
I15236
ssS'bGVp-sHFjnzZjbE7rgD_3w'
p134
(dp135
g3
I25677
ssS'i1NPWfmmynLOM5Ci2iRLcw'
p136
(dp137
g3
I1008
ssS'5uZoyXhIsPj7POpJmrbqlw'
p138
(dp139
g3
I27813
ssS'u11icoOGFVk0am2zZOa63w'
p140
(dp141
g3
I163
ssS'npEwvsu2Y6Nk2nb20YpgqQ'
p142
(dp143
g3
I9923
ssS'Up6AOvdqO2e4UfQZ-qji7w'
p144
(dp145
g3
I11234
ssS'B3ysJoFJr0PDHczLMTQgUA'
p146
(dp147
g3
I23457
ssS'admcXi_CTOmulqYjQAfB5w'
p148
(dp149
g3
I10072
ssS'nmsbZHBhiqS5DRMzM4wFYQ'
p150
(dp151
g3
I13902
ssS'LQykKcNQm98i5Z6T494F4w'
p152
(dp153
g3
I15901
ssS'kuCLvtxGmFNLs6nl4IN7fQ'
p154
(dp155
g3
I10568
ssS'Gx9-QZYX7_bgv5NbSLBVGw'
p156
(dp157
g3
I19381
ssS'47Q8E43e1mGoGblsfyTyow'
p158
(dp159
g3
I13118
ssS'EH07V44wwSLXWZRkZ66zyg'
p160
(dp161
g3
I946
ssS'_Rleq48cZwvLSeBubxKA9w'
p162
(dp163
g3
I28422
ssS'ScqixMWo7mNF1lgl0EOhNw'
p164
(dp165
g3
I20261
ssS'iAP-gJOfOKWUFmDzVzPAKA'
p166
(dp167
g3
I15101
ssS'WNBXwhqP9Oy9oHdwpDCK8A'
p168
(dp169
g3
I26541
ssS'0lfFiYHA51PgNAD1Tb2Xng'
p170
(dp171
g3
I9415
ssS'p4SNP70HYUpK_wXhRpIcFQ'
p172
(dp173
g3
I6955
ssS'53f8COSsk9ZabOGQ--ZEkw'
p174
(dp175
g3
I24635
ssS'jIieaaZl6BeEfDylg3osJA'
p176
(dp177
g3
I19408
ssS'0KuR8Sy6NKE46MZf4O6MBA'
p178
(dp179
g3
I13691
ssS'zHgmWv6NbwZepUSqA_FlLw'
p180
(dp181
g3
I13334
ssS'zCeNVj4PSCPxbHMUwz3_RA'
p182
(dp183
g3
I2119
ssS'aAJ46mQbd9AlAqriDlxscw'
p184
(dp185
g3
I19298
ssS'O9HXzHNjieCQM9ne3A6TQQ'
p186
(dp187
g3
I6056
ssS'fSRiMsAmE03IAB6XsujE8A'
p188
(dp189
g3
I14248
ssS'alpryoF7TIGa3XEElSTvCA'
p190
(dp191
g3
I10722
ssS'aylf43W8dFWdoMixWiQHAg'
p192
(dp193
g3
I26976
ssS'y9ILbU5DRrBM-twCAVOaVQ'
p194
(dp195
g3
I18968
ssS'WcwNPnHGq1ZcdKJX6xf7Bg'
p196
(dp197
g3
I18101
ssS'PhFLNKOHrrEqqt5mFq0y4A'
p198
(dp199
g3
I15491
ssS'GwTb7Kiacz0jxqtiK8y09g'
p200
(dp201
g3
I21417
ssS'2TX0Gv0k6ZtEfVyImcvnNQ'
p202
(dp203
g3
I4330
ssS'AOSAYR_1rFVVGGY1ajEZ3g'
p204
(dp205
g3
I27174
ssS'XC1GQ-FVDDN-gpfLWnoYKA'
p206
(dp207
g3
I22323
ssS'tqkOBLvishWEBuxya9SoBw'
p208
(dp209
g3
I5414
ssS'h5-yhYHT-1Yk4h7q7vjQDQ'
p210
(dp211
g3
I2981
ssS'IX0FwVlVJCofw066Gm3OPw'
p212
(dp213
g3
I26738
ssS'FoSbHfzmVF87FtJK4uO_vQ'
p214
(dp215
g3
I3061
ssS'3NlrLWgEsZUyPoCItSxnRw'
p216
(dp217
g3
I5919
ssS'lV5EpiOMlitMVjk5r6yBSw'
p218
(dp219
g3
I8797
ssS'MjY15QEdD0y3TIqjKxNrBg'
p220
(dp221
g3
I15748
ssS'YLdUQKSdsDmZMiKni4vvOw'
p222
(dp223
g3
I2814
ssS'2u890FSYN-wLtKv5jJVrzA'
p224
(dp225
g3
I25282
ssS'OEs1nIfj6wQe5Pf4ClhDrA'
p226
(dp227
g3
I687
ssS'I8bAJmAXfbhtrwAlQs9HVw'
p228
(dp229
g3
I22907
ssS'dTRuJVWSf901PSEzA9gKYw'
p230
(dp231
g3
I1913
ssS'MtZ9pTrYhUhXEE45Ee4pnw'
p232
(dp233
g3
I16074
ssS'sWh4Tjwa8ch_rziHtTN9LA'
p234
(dp235
g3
I28855
ssS'eVmeZgPKgoHKi9aKvXvoYw'
p236
(dp237
g3
I2839
ssS'y7sq26EXGz7XG7DSo8TOuQ'
p238
(dp239
g3
I3923
ssS'0dJPYfb_JT5OcXaZCoDe1Q'
p240
(dp241
g3
I25917
ssS'HItaGkFgcTn8CO7hJUDYTw'
p242
(dp243
g3
I25669
ssS'zvFDYEFo_xO8VqLQfmB-DA'
p244
(dp245
g3
I9163
ssS'nplVg06fHWNGrLnAuQyMeQ'
p246
(dp247
g3
I10970
ssS'zi0kxtr5gq0Flg7jYdIlMA'
p248
(dp249
g3
I6575
ssS'OA6pgBtIhnodJNThVOCKaw'
p250
(dp251
g3
I22477
ssS'NLIyErR75dlSv8ccNw62JA'
p252
(dp253
g3
I6715
ssS'IldNKx5L8unlcv3LBSs-_g'
p254
(dp255
g3
I13977
ssS'sEZvhiIjrJcLOdeB_ygOMQ'
p256
(dp257
g3
I18009
ssS'AkVQf79mleWL-j9cK3g72w'
p258
(dp259
g3
I25473
ssS'WuOsFiTQ2X-YoH9y27u_Uw'
p260
(dp261
g3
I12644
ssS'rcZRa154URzSybjEhKxdYA'
p262
(dp263
g3
I28688
ssS'F683MsK550pO-iShWHqecw'
p264
(dp265
g3
I15434
ssS'2jI8hHdVB5BvUALXfq9eJA'
p266
(dp267
g3
I28039
ssS'LG1QxJiQr4HvTbNjBuzQOQ'
p268
(dp269
g3
I18515
ssS'_c1iwqBBpidFWbVi_kF_sw'
p270
(dp271
g3
I9612
ssS'GiP5OXZw_VQnoCLJ_2-bqg'
p272
(dp273
g3
I29463
ssS'MbFm9cSVObf5_CawgK0iow'
p274
(dp275
g3
I28432
ssS'06jGTBWhhDAJ5PXCxIq3rA'
p276
(dp277
g3
I23301
ssS'VSpo37oZvQ7XjdMcp0MwZg'
p278
(dp279
g3
I29014
ssS'OYourEKECpCXS8ZVNLeqGw'
p280
(dp281
g3
I29714
ssS'1HYHsSXpv0iD1HRAAUEYYQ'
p282
(dp283
g3
I21679
ssS'7IBRpN1fxG4iDIX9TwxPyg'
p284
(dp285
g3
I28923
ssS'2EC1K_VAGSkWu6Jg1KzdgQ'
p286
(dp287
g3
I3220
ssS'wr90lCmqBsR1amMclOSasw'
p288
(dp289
g3
I20100
ssS'WxZ50CuVSNtMjUNvEA5FxA'
p290
(dp291
g3
I26024
ssS'3cJWpZyC0UOA1r5AiWDFjg'
p292
(dp293
g3
I2284
ssS'ujRqpdTXYvX17ZslUq7qyQ'
p294
(dp295
g3
I1328
ssS'oi63GIlljHU8K6Bm_zXmRQ'
p296
(dp297
g3
I5376
ssS'dCVE1ViilDjSHjwsfEK8VA'
p298
(dp299
g3
I15628
ssS'ZlTKqXwGbF8Wx5N3rkwD_w'
p300
(dp301
g3
I1316
ssS'DQBoquuWLC-FoKi9p9c3XA'
p302
(dp303
g3
I23245
ssS'-9VxVKjNuL9Px25RW8earg'
p304
(dp305
g3
I24704
ssS'm5px5l86OfX_bibsMT4P7w'
p306
(dp307
g3
I3212
ssS'TLAHSTktRGZ7nypPvTCPCw'
p308
(dp309
g3
I16801
ssS'YdZIxGtisDaoOo-mZQOSwA'
p310
(dp311
g3
I24078
ssS'ayQo2fUlJqvj7hYeCN-elg'
p312
(dp313
g3
I12904
ssS'kv5NMZ-vLQ17UIpqr1o9EQ'
p314
(dp315
g3
I11294
ssS'd5EDZQ-849FRf0lp3HvwrQ'
p316
(dp317
g3
I29846
ssS'DHqIujObe-LU95nxKCB8Xg'
p318
(dp319
g3
I29296
ssS'_6icaHXzsq9z9c83mZMzkg'
p320
(dp321
g3
I29097
ssS'44FZYP4fQbeAimA818oHtw'
p322
(dp323
g3
I762
ssS'U8ayzBXrBzgjdrCYOzwNOg'
p324
(dp325
g3
I15728
ssS'eAVG2U0FJYsSv7t-zI1eVA'
p326
(dp327
g3
I9323
ssS'bYZN1gwIQRS_miEPqeV9og'
p328
(dp329
g3
I28955
ssS'JbEUL3sYEFHF3EyFf3Mntw'
p330
(dp331
g3
I19484
ssS'D9IbFBww5VL3NBiKic4Kqg'
p332
(dp333
g3
I9270
ssS'6iCZXNFqu3X_DKYypsU1tQ'
p334
(dp335
g3
I2609
ssS'OWOqtbHzO75-l3eSTj05MA'
p336
(dp337
g3
I23396
ssS'EUSAKsugCyyhK1r7Z_0pmQ'
p338
(dp339
g3
I28123
ssS'sJCRPUUrajHCEL0UhNuXvA'
p340
(dp341
g3
I17002
ssS'k4Wu8s_XEPrrJzxOK3h31A'
p342
(dp343
g3
I15592
ssS'YQdfmsyd8HVlnifI0peIxw'
p344
(dp345
g3
I15049
ssS'dhnxKwA7FOkpKxos9EiLjA'
p346
(dp347
g3
I24199
ssS'472gmqFbcAm6W_SXVLL6_Q'
p348
(dp349
g3
I10709
ssS'NqNDFASKhIkw6IY3LSg-og'
p350
(dp351
g3
I23145
ssS'RG2EQBNaVm4tCCS-fb1iUw'
p352
(dp353
g3
I11196
ssS'deFVLwiJ0m_LwWteRufwfQ'
p354
(dp355
g3
I16000
ssS'AlNqyLAPMIqEqviGD8_5lw'
p356
(dp357
g3
I13560
ssS'hZEnO5mcNKl_1BFJuMElKQ'
p358
(dp359
g3
I3134
ssS'e9bQKHG5fr8mmw5TPAewWw'
p360
(dp361
g3
I27487
ssS'-x26J1pClBxSW131fZw4dQ'
p362
(dp363
g3
I12690
ssS'H7OGq5Upv2FwuSORESv6Kg'
p364
(dp365
g3
I8617
ssS'dPQpXx0JNrFhqgvHG2XVSQ'
p366
(dp367
g3
I12444
ssS'9tX14jenWywise71ziATxA'
p368
(dp369
g3
I13306
ssS'Mxvn449uRlyJB0tUsz4FhQ'
p370
(dp371
g3
I19672
ssS'wZofKKoECBLrsBCCss56lg'
p372
(dp373
g3
I5833
ssS'iSbXJ3dvDmlC5TGrAJaeTQ'
p374
(dp375
g3
I21083
ssS'qfkfwUUeTzDGgv9rxCxbAw'
p376
(dp377
g3
I5775
ssS'Aqx50LvHHE90sHtp-O2olg'
p378
(dp379
g3
I23198
ssS'gK3p1br3YRN3xJ5jkqOKLg'
p380
(dp381
g3
I12114
ssS'Hu0DsnKzczZJWzftlqIF9g'
p382
(dp383
g3
I27973
ssS'oGWF7K6W_YnhVsy-O3HbnA'
p384
(dp385
g3
I28797
ssS'laqSobmMSM_DkN82D5sEAw'
p386
(dp387
g3
I1103
ssS'60i9h-gPKH1f0YC_bZXDhg'
p388
(dp389
g3
I26018
ssS'tZsfvvFBPcnRI6Q7ggmVig'
p390
(dp391
g3
I24064
ssS'isIlU2tW-BurwTtqaIwWCQ'
p392
(dp393
g3
I6786
ssS'h-inmN9Fqv1cOU5KeIaJ7A'
p394
(dp395
g3
I10909
ssS'ZirtwB_QHFUGX_7x02jf5Q'
p396
(dp397
g3
I28498
ssS'c04dZ5_tRAKy-eNsKVy_cQ'
p398
(dp399
g3
I441
ssS'OSqWrZBSdUrqIlKmQ5MRxw'
p400
(dp401
g3
I8143
ssS'xAFpj-bdYT_nB-nkyT6dxg'
p402
(dp403
g3
I6508
ssS'ZjE-T9NbjVHTzsJEKXHYNw'
p404
(dp405
g3
I24782
ssS'JeBi1WOHYnCW7Jmi3-nrWw'
p406
(dp407
g3
I7303
ssS'TdcwQC9lzKQ5jKTVXoV72Q'
p408
(dp409
g3
I4117
ssS'bGe1j0Py2E58cIrbHUFx2Q'
p410
(dp411
g3
I19516
ssS'8KBmUXP4gUoGPxNKnHLpjw'
p412
(dp413
g3
I11816
ssS'zPnzh9-UZrmKnTlVXsMC5A'
p414
(dp415
g3
I17767
ssS'KNfzO9GOBhfkfQGsOwNW2w'
p416
(dp417
g3
I4072
ssS'y233ikefNw7SFBm19Y2xAg'
p418
(dp419
g3
I17829
ssS'CCWTs_V2FeFxVvPRPVr2hA'
p420
(dp421
g3
I6668
ssS'3r3VdhqXnPVeTirRTDpfjw'
p422
(dp423
g3
I25108
ssS'lr5_7PqBjjUSooZLaPg1Eg'
p424
(dp425
g3
I25404
ssS'uIOraQTn0blZRXmZPfJFbA'
p426
(dp427
g3
I20450
ssS'MbJOllFenYqRpwOCoaWXtQ'
p428
(dp429
g3
I9627
ssS'2IbMDQWmzM-kY7bhjS87zw'
p430
(dp431
g3
I5982
ssS'KNKcc5vF5k-vbAVIaZ-mGg'
p432
(dp433
g3
I21887
ssS'9ZDiDjfWGvclLWcL8sB9rw'
p434
(dp435
g3
I7686
ssS'Gh5fPzvEARJX2KBg1lmTJQ'
p436
(dp437
g3
I9559
ssS'FckODNmz1AX0K69wXIqoTg'
p438
(dp439
g3
I6072
ssS'F3UojyaAto_lqeVAcUIl6A'
p440
(dp441
g3
I12877
ssS'TcLhgLTeeWN2hdK-I6fgJQ'
p442
(dp443
g3
I12023
ssS'qiMMvkQagW2XaBIHF9-McA'
p444
(dp445
g3
I26686
ssS'QNcr_0LH_SoKmci2LvGW4w'
p446
(dp447
g3
I15026
ssS'bnYQDSdHbIo4-pv1ZayL7A'
p448
(dp449
g3
I5791
ssS'NtOVhVdb27aw2bFQ9_ANHw'
p450
(dp451
g3
I5927
ssS'kLMr-1rg0vkSbFVhLFYf-A'
p452
(dp453
g3
I18037
ssS'pErAerEObYkIYznI3GhS-w'
p454
(dp455
g3
I18451
ssS'_p-wFE6PvIaiJqqhVcy2pw'
p456
(dp457
g3
I2022
ssS'JCpQDETmyGtQ_PJbSnc47w'
p458
(dp459
g3
I404
ssS'JE5I7pZDd_GVc3pNvfhIiA'
p460
(dp461
g3
I18981
ssS'iEFM5SyCzSCbwDImB4GDrw'
p462
(dp463
g3
I6627
ssS'sVmG60TBjml73VG4FX4tSQ'
p464
(dp465
g3
I26827
ssS'GXe3nPZXh9cq-eVDymKtDg'
p466
(dp467
g3
I7966
ssS't8Hcw3LacAarSzt3ekf4Zw'
p468
(dp469
g3
I17962
ssS'jZpdKVFCYmeZgWdOOYHEvA'
p470
(dp471
g3
I29424
ssS'JEpvJBvjXnrAf4SFDb3EsQ'
p472
(dp473
g3
I2156
ssS'Voqiwv1Zk9TR00xbMZ4ZSw'
p474
(dp475
g3
I12256
ssS'rZKsBmKhw48z1WmLQl_a8g'
p476
(dp477
g3
I16600
ssS'5mn4QIgawCizJ22UKqJbFg'
p478
(dp479
g3
I28395
ssS'nJpkVPsHwYnbH-e2jqFBQw'
p480
(dp481
g3
I26534
ssS'EhFfckdEPlZm7nKmaVsr1A'
p482
(dp483
g3
I24160
ssS'IyxFBaOOAMke-ER4RVhuqQ'
p484
(dp485
g3
I2062
ssS'umn7lF1vDsNEEkFE7ipvFA'
p486
(dp487
g3
I23844
ssS'mx5M_UdOt9o3k4Vvf2HzBg'
p488
(dp489
g3
I26804
ssS'segRxemFobkHWDBIkMb4Qg'
p490
(dp491
g3
I6066
ssS'XDFrc8vbUCswgkooPUau2A'
p492
(dp493
g3
I11726
ssS'sQYBQ7KUKhx3Ky1-FzJQ_g'
p494
(dp495
g3
I14320
ssS'AUd1NIyW2lZYbKp64XCgPQ'
p496
(dp497
g3
I1993
ssS'vD0DDkYaNnHB8oIs3Emxgw'
p498
(dp499
g3
I8080
ssS'E3n9V3XA4mW-fqrpuFB5Kw'
p500
(dp501
g3
I1707
ssS'EEsYi_yEGWADkWJxkkWcYg'
p502
(dp503
g3
I28257
ssS'k8uOZbpwxJH5RJOxuHHG9A'
p504
(dp505
g3
I21620
ssS'bOwaG7GpojycpjbhpfECPg'
p506
(dp507
g3
I4524
ssS'8qUUWj46Xg-M1cfaxmRuhg'
p508
(dp509
g3
I22036
ssS'ccBxKxG4snrYydmAhu1scQ'
p510
(dp511
g3
I21683
ssS'bgZ4vP_EiOJxbKisZCVp2A'
p512
(dp513
g3
I26053
ssS'c8_iY_xL60s2hiu4Oqfpdg'
p514
(dp515
g3
I14832
ssS'nQWU1g-VOzgHQUX02Xx5Bw'
p516
(dp517
g3
I10478
ssS'YLtFrgwwfe_Bnl7H2NCg_Q'
p518
(dp519
g3
I26715
ssS'FdxUhQ2orufg_eMgWAoH6Q'
p520
(dp521
g3
I25803
ssS'NM7eMwoC0dluaROM1rTbGA'
p522
(dp523
g3
I17515
ssS'NSEpvNdd1TV8LjTXI5qVmQ'
p524
(dp525
g3
I25242
ssS'Q2e6q3_5DbF10ZKJCPEuOg'
p526
(dp527
g3
I5216
ssS'aSSmveYvsSqaQGsY6EtZ2g'
p528
(dp529
g3
I7088
ssS'kQRXNJHNnvxojBXLulxozQ'
p530
(dp531
g3
I2554
ssS'IXn7pcVEnJUMlJExYdWPQw'
p532
(dp533
g3
I23935
ssS'GJap_-i3vAdrJjllD1K-OQ'
p534
(dp535
g3
I29583
ssS'X1GBevkXNhR73u9WDKEyjg'
p536
(dp537
g3
I1646
ssS'x_bl9GQUv25aEiN-YysThQ'
p538
(dp539
g3
I15014
ssS'dYj2bFCak_Q3TXN4aGHZeg'
p540
(dp541
g3
I14594
ssS'YroNL98cYvWyezzxtIWMDw'
p542
(dp543
g3
I4996
ssS'4DtBamDdmuYGozIHJN9cig'
p544
(dp545
g3
I12466
ssS'hfgzp4Gb0ssUHZD-6pjMHA'
p546
(dp547
g3
I30008
ssS'JakkxuFpMy9csJuj-lpvaQ'
p548
(dp549
g3
I2719
ssS'3j84GFWj8izOI5lXt-eGGw'
p550
(dp551
g3
I18730
ssS'zn6bToWiOIgzck77DAPHQQ'
p552
(dp553
g3
I13249
ssS'-8TJOybMc1b3t1u9Ii272A'
p554
(dp555
g3
I17027
ssS'Jt_ym6LJrXXeI9yIUb7-9A'
p556
(dp557
g3
I11517
ssS'XJAKSnJOn2NE8ekSh3uJTg'
p558
(dp559
g3
I894
ssS'4nk4dFA8pbIfBjdIFpP-fA'
p560
(dp561
g3
I3992
ssS'lCkjeDVdhqhdM-GnmGOuMQ'
p562
(dp563
g3
I20971
ssS'Ep2bE0lPEJMcJfts8r8NHw'
p564
(dp565
g3
I19671
ssS'6ZXbTu3isjKoD42_iKOhqA'
p566
(dp567
g3
I6197
ssS'3OxuTDJmqA6zTIrXFWG39g'
p568
(dp569
g3
I707
ssS'pw-k3TMjt1ZNB2-iRVTDlQ'
p570
(dp571
g3
I25235
ssS'xZvkZyDuQuL54xyHx2-GHA'
p572
(dp573
g3
I18916
ssS'gLYQKet4SN38w-oGxN45XQ'
p574
(dp575
g3
I16209
ssS'2niwhUC9pAeHH_W29cl9Cg'
p576
(dp577
g3
I10912
ssS'vDIs0RJ3r7OS9bOAxeylFw'
p578
(dp579
g3
I219
ssS'7Q96OR8uguqam2IzqFYn-g'
p580
(dp581
g3
I4447
ssS'WQhir6W_3n8yy_0z2VCOfA'
p582
(dp583
g3
I17087
ssS'AMP2DVvE3I8HTcy9pfViVw'
p584
(dp585
g3
I7165
ssS'RGQ1ijtH-rVnNzaM53C0EQ'
p586
(dp587
g3
I23907
ssS'bo9703_zTS6Y-bsZTmXlvg'
p588
(dp589
g3
I10401
ssS'fp3_Gb_6dcQlF-Wh4rr1lA'
p590
(dp591
g3
I27548
ssS'9I16D_l2hLwFEyKmkWmJaQ'
p592
(dp593
g3
I18383
ssS'2yuLXsg4wmaEaHroRqvtyw'
p594
(dp595
g3
I14119
ssS'Oba6VjQT4Tv1n_hqP-XDCw'
p596
(dp597
g3
I3116
ssS'vi1CegNu2LoKDT3PLfsG0w'
p598
(dp599
g3
I7392
ssS'9M5EIzohoSndaiFkLz9bug'
p600
(dp601
g3
I17713
ssS'YVtK_dqhTW2ucFx-YGVkog'
p602
(dp603
g3
I14313
ssS'T73F6lnyRuHC1Z-iqHtLwA'
p604
(dp605
g3
I20241
ssS'pQlQ5B6rkPjPdinD1BjuIg'
p606
(dp607
g3
I15300
ssS'DzOWT48AN6XB4D7t4rZCPQ'
p608
(dp609
g3
I4475
ssS'M_rUn8TIYxX2OLQEuC9faw'
p610
(dp611
g3
I19537
ssS'KM9I3k5D7aCtqBG5DiqHeA'
p612
(dp613
g3
I26519
ssS'3XY9zKq9aw3z1GoPGsQAEw'
p614
(dp615
g3
I29213
ssS'ufcuBP32bl-DrqKnHCWCZw'
p616
(dp617
g3
I28447
ssS'M7AH16ag_GIYuHN51Rw-oA'
p618
(dp619
g3
I1918
ssS'zrxVB0HBJNB6fwKB62sfJQ'
p620
(dp621
g3
I25646
ssS'oUGmoziFCwNi2oUHB54SGg'
p622
(dp623
g3
I6097
ssS'ln3n37Cuzjo3yPZ5L05XpQ'
p624
(dp625
g3
I3392
ssS'ge5QqB1vp5LIl2uZDa9FhQ'
p626
(dp627
g3
I27061
ssS'YFNCwS76cYQAaDNGYoiBNQ'
p628
(dp629
g3
I20045
ssS'0RwURk5HctmgkmYSIjAXrA'
p630
(dp631
g3
I9231
ssS'B9yUEFZ8uP93bbMK1H7TuA'
p632
(dp633
g3
I9803
ssS'l0K666fe7SZn1cu36ymQtQ'
p634
(dp635
g3
I19054
ssS'hKJsae1YDM57ujATRpnjAA'
p636
(dp637
g3
I21921
ssS'cEjHHjG7MU4vwUxQFcSjMw'
p638
(dp639
g3
I24271
ssS'rszuPsjf9vOpcqL_t2-L2g'
p640
(dp641
g3
I13730
ssS'tTSBim4bOIow2tdE-RxJUw'
p642
(dp643
g3
I8231
ssS'TPxhtgj6BzpKBih2G5EHIQ'
p644
(dp645
g3
I13351
ssS'qatz7bAPIdEMKZgShee_gA'
p646
(dp647
g3
I8652
ssS'j17WgK5a1rfeRs3i9XzjnQ'
p648
(dp649
g3
I23595
ssS'KLdEkFQVcqLa4BghUvMpew'
p650
(dp651
g3
I18529
ssS'du6KeE54IFbPiXpU3LOd1g'
p652
(dp653
g3
I21180
ssS'dn9DSDp9CYCRffmL1voq6g'
p654
(dp655
g3
I6370
ssS'0RmkyM-EnUwYcudcdbgdKg'
p656
(dp657
g3
I20626
ssS'dAnQ5B7vgHtbOmXp6H8yXw'
p658
(dp659
g3
I22064
ssS'-llPwrxVbY7qkhTECgwUpw'
p660
(dp661
g3
I14853
ssS'DXl1SBBYH5hJN32QiABqtw'
p662
(dp663
g3
I14760
ssS'8au8PSKs_INSE8kPWPVuFg'
p664
(dp665
g3
I27234
ssS'5pILIG8IjyNGLbyEd2IIqQ'
p666
(dp667
g3
I3359
ssS'w6j4XHAzR-Dlo9ZzD8tX_Q'
p668
(dp669
g3
I18567
ssS't2Clq_0plcyZXswqWNf1QQ'
p670
(dp671
g3
I1180
ssS'-mRrD-gBAnMKY1iJMjmUUA'
p672
(dp673
g3
I27725
ssS'ZAfuthbS6V_QU-YajP3fCQ'
p674
(dp675
g3
I29218
ssS'YrwkSkPJmSFVV-kX2Wk-kw'
p676
(dp677
g3
I30219
ssS'Mhsdh8yUTHj-HmCj1IiM3A'
p678
(dp679
g3
I29953
ssS'Tb31E32TYfJmSH5WXPm8KA'
p680
(dp681
g3
I18681
ssS'Wyr6RtWbrsM22gxVOAYppw'
p682
(dp683
g3
I17742
ssS'GIh4XB5bbjq1fKSUS6MhsA'
p684
(dp685
g3
I523
ssS'LkkuulhHR3XhTwWm73fW-A'
p686
(dp687
g3
I18811
ssS'0q1cRMrvUnjLfleIndWegg'
p688
(dp689
g3
I18023
ssS'J9jys5k9dIIV5OpaylzMUg'
p690
(dp691
g3
I5900
ssS'_k4YraIsteWuxtrAcnTGIg'
p692
(dp693
g3
I10264
ssS'pRyBdSlRKhM48a5XzdiYYA'
p694
(dp695
g3
I5255
ssS'u239bvYalmelGSfnwQB-Rw'
p696
(dp697
g3
I6748
ssS'THWy5fcqgLtXWUAPYZOL6g'
p698
(dp699
g3
I28612
ssS'Od6j5xcPqpIZVA4ki8ASZw'
p700
(dp701
g3
I13588
ssS'qYnXG4az7ITxdyquD0XDeg'
p702
(dp703
g3
I2287
ssS'39vKegL8V0n4iuKwMsw96Q'
p704
(dp705
g3
I21539
ssS'41ZMxjJElyNsnrLl1_Bcdw'
p706
(dp707
g3
I12801
ssS'0VptqMr6enVCnqRjVYs4NQ'
p708
(dp709
g3
I16090
ssS'3UhlTf5Rk5kf33pMo8T3Ww'
p710
(dp711
g3
I1171
ssS'7FBFq151YXe1aEnkFqnEKA'
p712
(dp713
g3
I15254
ssS'7cIc52lToGmKu7Hpp6rPdg'
p714
(dp715
g3
I10044
ssS'AqTGBF3a0ovVGklWNg9vRw'
p716
(dp717
g3
I21678
ssS'SSBLdzPzvPmSYZyPOZgTWQ'
p718
(dp719
g3
I5056
ssS'Kiq2D60hq6LHdPi3xqjZJw'
p720
(dp721
g3
I11827
ssS'0fPMXVO291RUO6lnQAw9Jg'
p722
(dp723
g3
I28694
ssS'iZi2fCZi6F_5A33wNLfT3Q'
p724
(dp725
g3
I17154
ssS'iMghLjSlmeZUb_0tADN0eA'
p726
(dp727
g3
I23549
ssS'CCz9HDSdjqK_w7_YsDk_Gg'
p728
(dp729
g3
I29694
ssS'1N3IoAoTIKNamQrhoVnLVg'
p730
(dp731
g3
I5821
ssS'Ryy5lzNOevuI3aEc95768Q'
p732
(dp733
g3
I17993
ssS'RYZkh25oKi5-U4B3es3okQ'
p734
(dp735
g3
I18717
ssS'AAv0CP8jmprbYJCShMHLNg'
p736
(dp737
g3
I10756
ssS'6zaA3yPZ9q7BsUsFPTNAlQ'
p738
(dp739
g3
I9928
ssS'uU-Wci9HaDMJe6VG4lA1dw'
p740
(dp741
g3
I5359
ssS'CX82w_taFmZR6HTis_nw9w'
p742
(dp743
g3
I16706
ssS'g9VwI0ld72TrzjEXzmHaww'
p744
(dp745
g3
I9826
ssS'n-XdkKrbKPs8x7rUuizx1g'
p746
(dp747
g3
I16468
ssS'HiG99Pt-6XA7x2g3a1oEHQ'
p748
(dp749
g3
I8542
ssS'PKjlZxmRS8tKhaiNpIGBMQ'
p750
(dp751
g3
I14043
ssS'OOu79v5TvJqGyBzQR9l1DA'
p752
(dp753
g3
I11894
ssS'1gjqlPyLz9FQVvnXFzeQxw'
p754
(dp755
g3
I5179
ssS'_LhbPMtDR65rdUaFt49zbw'
p756
(dp757
g3
I8628
ssS'2iF88_ApHPsdxZln4S-SzQ'
p758
(dp759
g3
I11462
ssS'i6qUCbZx2ZmhQvf-uVFMmw'
p760
(dp761
g3
I16373
ssS'zR8TgLiuWq4xZVXJEC8YEg'
p762
(dp763
g3
I11513
ssS'rSMbmdr9IUWP4Fc1emCggQ'
p764
(dp765
g3
I2085
ssS'qWLezzHxOXN-GQdInixZzw'
p766
(dp767
g3
I2689
ssS'vwLmvuSyt2qervMRFennHw'
p768
(dp769
g3
I28623
ssS'Hrx57cIiOSDInV5u8Deo7w'
p770
(dp771
g3
I9056
ssS're3TP20t97rmnoAhngWJ-A'
p772
(dp773
g3
I29985
ssS'L8_GwFxxtGSYR2F_dglpSg'
p774
(dp775
g3
I29309
ssS'z_ylQZZO7CC0tpzPyatkNg'
p776
(dp777
g3
I8919
ssS'tNg_bWOMz_zedUT_zx6VZg'
p778
(dp779
g3
I20390
ssS'esDbDKH7O4c9eOj00ZzVOQ'
p780
(dp781
g3
I10001
ssS'mtibVusLTNkS-LljQJpwhw'
p782
(dp783
g3
I22754
ssS'MxaSawL9qIvml5KTsZs1DQ'
p784
(dp785
g3
I20150
ssS'Beh_tJFN8oMKQCFySbB3_g'
p786
(dp787
g3
I29978
ssS'xofFo7WFfHOkzbtoG6SgPg'
p788
(dp789
g3
I12699
ssS'KTN6I5g_aUGviTCFfoOpxA'
p790
(dp791
g3
I29032
ssS'ZDw4Z7uOcJVRQdqS5ONjSA'
p792
(dp793
g3
I17798
ssS'-flk3mw_ToHZFszsgFimGA'
p794
(dp795
g3
I27359
ssS'h5334mCtj0tr1KPCw6gvQg'
p796
(dp797
g3
I10690
ssS'rAfN_eXc7PvtISk2ZIZfGQ'
p798
(dp799
g3
I8430
ssS'jPwveAVMfAtmAkT-9l83vg'
p800
(dp801
g3
I11423
ssS'h54pL83lWbgc5eeCDzYdRw'
p802
(dp803
g3
I8315
ssS'O-zVhDi_TeMs6R2Rz31g4Q'
p804
(dp805
g3
I25188
ssS'ud-CjTXGlZPQA0TN5IGvAA'
p806
(dp807
g3
I27097
ssS'YuxwuOg4w8ZfnxxmB-gkkw'
p808
(dp809
g3
I7136
ssS'63hwBkaK7pSDyBgFDVbxRw'
p810
(dp811
g3
I7866
ssS'DS9UNiRlIpTEVypGfsI70Q'
p812
(dp813
g3
I11495
ssS'aWHX1QdKbSgSkMA9N0a8MA'
p814
(dp815
g3
I659
ssS'nfQBSI4UymhmBTJpd_D_VA'
p816
(dp817
g3
I22110
ssS'BCQsC_85KH5gtknX3YyCRw'
p818
(dp819
g3
I16065
ssS'FpVw5ebRQ5P93s8sLU2EFw'
p820
(dp821
g3
I4479
ssS'xQJY0AAY4yRaUqWUjD_nLQ'
p822
(dp823
g3
I23281
ssS'NELEY9JB8FqD-SoRYrtj1w'
p824
(dp825
g3
I4507
ssS'm9Kl_CB5K5Zlmn1aNAFl3w'
p826
(dp827
g3
I26001
ssS'LsiZwF0uITNsAD-TXEIA6A'
p828
(dp829
g3
I993
ssS'61JQj-OEwWTEdbr1K4wbBw'
p830
(dp831
g3
I19409
ssS'd1EniOsUjXuN31a8MTC1dQ'
p832
(dp833
g3
I28943
ssS'SjW6SsaOpvNOhiIONJdtTQ'
p834
(dp835
g3
I19288
ssS'L5_LHkhWAHtubpCPWbkm4Q'
p836
(dp837
g3
I12669
ssS'gzCQjTq5-GFosc64f4U8FA'
p838
(dp839
g3
I7781
ssS'HHv8BedSb5d_a0wIuTvjoA'
p840
(dp841
g3
I29423
ssS'fjJ9tgJNhDR_l3_4t5fz2Q'
p842
(dp843
g3
I752
ssS'nzxb33BYGxyI018jRRGDQw'
p844
(dp845
g3
I29526
ssS'K4iqvVwkTMMXtQzr1Gxayg'
p846
(dp847
g3
I20285
ssS'tecH3NHS-ypKzPfxSklZsg'
p848
(dp849
g3
I5773
ssS'DXfdhaj3DJnVrnUCvdhbaw'
p850
(dp851
g3
I14229
ssS'iC_P_RvZqXHDEr1moLyM1w'
p852
(dp853
g3
I14624
ssS'BDaIVzWJ01S4TFxyXW-MnA'
p854
(dp855
g3
I21253
ssS'QKfw33YwhPOdBqrJ3ZzRgw'
p856
(dp857
g3
I27703
ssS'2hk8v0GlGCl-ZxcjG4pq1g'
p858
(dp859
g3
I23795
ssS'2U9fNmNZBtR9JGNKAWeGjQ'
p860
(dp861
g3
I379
ssS'ol7Ubb3i2OXPoG_PE8QeLA'
p862
(dp863
g3
I20080
ssS'7NtrU8wl0_K-CwqNzbh3Iw'
p864
(dp865
g3
I23493
ssS'lDAhzgn0ulIfZt4bZE62CQ'
p866
(dp867
g3
I23337
ssS'ZFlYv9VJbVYe6F3iSELXOg'
p868
(dp869
g3
I11064
ssS'UQKqW-_3wvNjcwp0rlgOrw'
p870
(dp871
g3
I25842
ssS'xvZquiiO0HNUxxCb1BrsEQ'
p872
(dp873
g3
I19331
ssS'A3PEy6o-lQ-kRX3PXJo3hQ'
p874
(dp875
g3
I4547
ssS'hYan-neMXHeOJolBcJQ8Dw'
p876
(dp877
g3
I5756
ssS'Avu3BYcXE_97L1H2HLKL2g'
p878
(dp879
g3
I28444
ssS'C3pfqJVsHOdv4t9GArBBxQ'
p880
(dp881
g3
I620
ssS'0AmVn00Gr2MRXIj7Y4TOAQ'
p882
(dp883
g3
I29596
ssS'rjozM6Vh_8Y9R7kLOfvtpg'
p884
(dp885
g3
I12882
ssS'r4_Ak41-IAJsF99CZnT-iQ'
p886
(dp887
g3
I8333
ssS'Iwh8sLizwohHiHgO9xaS6A'
p888
(dp889
g3
I6613
ssS'8xzqzbxG80Wp5lz_jRUwJQ'
p890
(dp891
g3
I22496
ssS'pfgOJ9ODhbkVSSpibh2hJQ'
p892
(dp893
g3
I12298
ssS'g6I0lyk-6fzykGi2_-IXVw'
p894
(dp895
g3
I1132
ssS'glyDnGYDUwMkvTL0qh5q2Q'
p896
(dp897
g3
I6996
ssS'2DvQAyLPIX8sa4TwkVpRWQ'
p898
(dp899
g3
I4998
ssS'y9IKf7VckFc-fesWuDwgxg'
p900
(dp901
g3
I3739
ssS'yg5LGiEdDSGXPByka4bHRg'
p902
(dp903
g3
I19868
ssS'1yWVbndz2yvrL4TeUFW11Q'
p904
(dp905
g3
I12629
ssS'_PZOxen887JYIixu-reMJA'
p906
(dp907
g3
I12648
ssS'bQl3UuEoWHTxOn6yEuM22g'
p908
(dp909
g3
I24371
ssS'PiIdsdEd8JrRaMv5aDzSZA'
p910
(dp911
g3
I23668
ssS'tmn9Ke3wkyt7F8lhwd2kUA'
p912
(dp913
g3
I28283
ssS'WDKIoW9UMlbIvt0_mHU-jw'
p914
(dp915
g3
I2922
ssS'TK7yRocuroDWjSk7xH2A4w'
p916
(dp917
g3
I709
ssS'JjweKRcu8DeYTah_KHsT2g'
p918
(dp919
g3
I16464
ssS'CTZ1auELuyHyCgtLa9IAFw'
p920
(dp921
g3
I12767
ssS'VHJxk9PZhQA07WWTkCrF7Q'
p922
(dp923
g3
I22572
ssS'f6y8-4X9vc5F_fT6zc8pBg'
p924
(dp925
g3
I15410
ssS'lr4H3Xm_6NkmqOB25Nitlw'
p926
(dp927
g3
I12004
ssS'fhmcdMc7VWP2OuyOqwJtUg'
p928
(dp929
g3
I24356
ssS'abrMcW5457gQ4ya379RPpA'
p930
(dp931
g3
I23052
ssS'rS8zK3NwQBUZSEUlPt7TKg'
p932
(dp933
g3
I263
ssS'ScGRHKYZb79rr1KJi01EZw'
p934
(dp935
g3
I803
ssS'OgdETu-Usy-8jLYPGkSd2A'
p936
(dp937
g3
I29819
ssS'V66H5W_4e2wcntzE8uHldw'
p938
(dp939
g3
I19704
ssS'iFl0c_-2SyJFrL2zTtP9xA'
p940
(dp941
g3
I18853
ssS'-fBKJ9cAfNztHdvxPbqCcg'
p942
(dp943
g3
I19137
ssS'KoplwVOqt46ON4MWnTb_4g'
p944
(dp945
g3
I2827
ssS'PMS0GgSAsstTVYETMhMrsg'
p946
(dp947
g3
I6600
ssS'CCHwJoIWLRhxqIcwRJW6ag'
p948
(dp949
g3
I15888
ssS'WVpGUHEsdVpbuf-JWBDa4g'
p950
(dp951
g3
I5722
ssS'x6856tCjFDewGT8WCQmP4A'
p952
(dp953
g3
I9939
ssS'RS4CTjzC9IRaNbfYOY4jUw'
p954
(dp955
g3
I7154
ssS'I3El0oTMiV-uLC8ceqQ3Vw'
p956
(dp957
g3
I27883
ssS'jG6FlCiR0SyPCHqiy4uJbQ'
p958
(dp959
g3
I23789
ssS'oTvFNOzso6GpWEb8O1jKGQ'
p960
(dp961
g3
I3984
ssS'w5AF-YHSxHBaZdvz0nGjzA'
p962
(dp963
g3
I20618
ssS'Vovmf8mdHgb2L51wC7FQzQ'
p964
(dp965
g3
I8519
ssS'W4--OcZwuBnUXYoTgnBiQA'
p966
(dp967
g3
I22615
ssS't58qGXYZp9nMVFyaZKqvFw'
p968
(dp969
g3
I4702
ssS'UVBsfLooSlDcsIi9AiiAqQ'
p970
(dp971
g3
I17716
ssS'pEwVatqIzuVNSUIjR8Y_Xw'
p972
(dp973
g3
I22348
ssS'4AHJijaCB4Sevv7MgX6ajQ'
p974
(dp975
g3
I26935
ssS'aKfRrGmWUeJ1sfhkEVwnmg'
p976
(dp977
g3
I26797
ssS'W0nAocH4fEKUJ--8RNyQLA'
p978
(dp979
g3
I5961
ssS'46YbLvT4tAfi_LCpLf59pg'
p980
(dp981
g3
I18167
ssS'IRr5EPu6bWjlNsJYhHRxBA'
p982
(dp983
g3
I21760
ssS'zeXc5-T-nxwXTmNmZpIM2w'
p984
(dp985
g3
I16342
ssS'92OadU1zjBBopkkWxWEroQ'
p986
(dp987
g3
I16685
ssS'FW4C9Hc-CR9tj112CCBCLQ'
p988
(dp989
g3
I20204
ssS'eST1Gm-T9lHriralMDvGiw'
p990
(dp991
g3
I29713
ssS'g6rlp5No6GjEDXkrjvg1kQ'
p992
(dp993
g3
I21263
ssS'eGCOU74bAEBYCFvMSwVGLQ'
p994
(dp995
g3
I1598
ssS'-rutaYKpWZoWcupIJ2OkHQ'
p996
(dp997
g3
I18213
ssS'l9OOQozUWjV4Sgjs6y-mxQ'
p998
(dp999
g3
I22277
ssS'nYh3azON2EmWzopD36JbGw'
p1000
(dp1001
g3
I22069
ssS'Ztp6nPCiwXcgBh5jcPbrVw'
p1002
(dp1003
g3
I3042
ssS'Vr7cGfUBUrMTGr20V9idOA'
p1004
(dp1005
g3
I28179
ssS'0fdjhG5DSZnhGd_YjL00Nw'
p1006
(dp1007
g3
I29126
ssS'b1_RszoOFkz5fTo0SeWoOA'
p1008
(dp1009
g3
I2745
ssS'dF-_VpjwuaRK5YzNO9OcEQ'
p1010
(dp1011
g3
I20282
ssS'1vDSCLH4lgf1LAbMhk9xCQ'
p1012
(dp1013
g3
I10083
ssS'PwegdDE2Wq8o8JqKspK5kg'
p1014
(dp1015
g3
I7181
ssS'jUpH-ETst9ZRIhqUXFVkVw'
p1016
(dp1017
g3
I6843
ssS'saiZmxzBIowJbMgPBW1Now'
p1018
(dp1019
g3
I3627
ssS'_Gwz2yLErh8pRCdluzr2rA'
p1020
(dp1021
g3
I22070
ssS'w5FinZO6LFOs7mkpWAWBnQ'
p1022
(dp1023
g3
I23688
ssS'FYv6zQqWYj-yw8WGNxLYjA'
p1024
(dp1025
g3
I10388
ssS'c2mZaVgCNuXXOA4-eutJgg'
p1026
(dp1027
g3
I8054
ssS'vmZh2hlUeC-18cbg544nyw'
p1028
(dp1029
g3
I4309
ssS'f0uYaL1drF8jxCjtvkgK1w'
p1030
(dp1031
g3
I22580
ssS'2LMaXyZh2efESSZvgtXaNQ'
p1032
(dp1033
g3
I1338
ssS'YkafUZz74f5C8ozi5NX73g'
p1034
(dp1035
g3
I23034
ssS'8IJWkwpGFdfqqnpFNgl1Hw'
p1036
(dp1037
g3
I2958
ssS'-cscgA-lVPipPwEX4RmcgQ'
p1038
(dp1039
g3
I20948
ssS'EROQwdBzr2gHMOTSeERkmQ'
p1040
(dp1041
g3
I693
ssS'qiDzapyypbPhtY_lzLdK6Q'
p1042
(dp1043
g3
I20798
ssS'XTzc74KtGUVZoFrNSilXzg'
p1044
(dp1045
g3
I24797
ssS'V0FpHvMOsrtqURt18glAew'
p1046
(dp1047
g3
I5613
ssS'1Y9czaw42cbhJ7EHx0fYbg'
p1048
(dp1049
g3
I11972
ssS'JIBZVvSnZaxmdeOSEJABAA'
p1050
(dp1051
g3
I1491
ssS'OP6Ex71aOd5LGZgS_CObTw'
p1052
(dp1053
g3
I5308
ssS'oB0_LonoUISFRUZx_3_lEA'
p1054
(dp1055
g3
I1053
ssS'sV9S3kMhbNoNwmlELyR3oA'
p1056
(dp1057
g3
I16346
ssS'tNlE_x4cf0_L84GaD0vnzg'
p1058
(dp1059
g3
I23332
ssS'e4vJFnZKcAlk5p5uH32N4w'
p1060
(dp1061
g3
I26423
ssS'eWuv_cyksC5f55-VcQFfBA'
p1062
(dp1063
g3
I21769
ssS'oSNNRyjMpe5Mu3VGV6gbtQ'
p1064
(dp1065
g3
I318
ssS'Sult01xfWfWQsGAVSx-jbQ'
p1066
(dp1067
g3
I17594
ssS'Jz4scLeJk2eki2vXmcETSA'
p1068
(dp1069
g3
I11531
ssS'FHGMfrXZy-flQsQ5--sDAw'
p1070
(dp1071
g3
I20424
ssS'aZYsP3lbE_cJq0wFoE_v4Q'
p1072
(dp1073
g3
I3652
ssS'aYDFqKsgNLzBi8PIhthmDw'
p1074
(dp1075
g3
I14140
ssS'xBb9QFhi4VAhmcerjHaQZw'
p1076
(dp1077
g3
I26459
ssS'H0jBzLPgeusR84nqdkTO9Q'
p1078
(dp1079
g3
I23852
ssS'MtX0WZ4bqMfFuYvtupgRqg'
p1080
(dp1081
g3
I24009
ssS'_N0-82RQCDCBhVFYNGBPLQ'
p1082
(dp1083
g3
I23411
ssS'Ozgk72uBEj3o6hLgJKgPbg'
p1084
(dp1085
g3
I7941
ssS'kCfwfPSOiC59qMu5EkOggA'
p1086
(dp1087
g3
I5975
ssS'JPJDHHyWkOdqvH04LVXWDg'
p1088
(dp1089
g3
I10969
ssS'2TgGkmZD9zkNh-v-cU4pEg'
p1090
(dp1091
g3
I16775
ssS'DbudEyeTSPA7P8tFJKS2dA'
p1092
(dp1093
g3
I2935
ssS'bu9mDOp0yS0XVbCstBXC3w'
p1094
(dp1095
g3
I6159
ssS'1AN7s2jXrZ_dCntCmjq_dw'
p1096
(dp1097
g3
I20107
ssS'6L0NJJAPbV0Kfme6aG36vw'
p1098
(dp1099
g3
I9881
ssS'c_WtbGlViMy6YEvDGAZPeA'
p1100
(dp1101
g3
I11443
ssS'dEXihqQ-9ZufQz2LJc2-kA'
p1102
(dp1103
g3
I25490
ssS'wPOuPcb9CKjrC078m-LObQ'
p1104
(dp1105
g3
I11719
ssS'Mxlrlof0ujvOrCbk32J3Bw'
p1106
(dp1107
g3
I14402
ssS'2mFwR7rzAWcvNJ9GdReWSw'
p1108
(dp1109
g3
I8535
ssS'9Ju7Q6ligUMJfp2TupYOCw'
p1110
(dp1111
g3
I13447
ssS'r-t7IiTSD0QZdt8lOUCqeQ'
p1112
(dp1113
g3
I15006
ssS'Ojf_XozkuSHXKhhpxEp-Dw'
p1114
(dp1115
g3
I15296
ssS'_tcp042Uw6YhkYsst1CZjA'
p1116
(dp1117
g3
I4390
ssS'KflsUqVkWMOpEuTx7pwy5g'
p1118
(dp1119
g3
I28710
ssS'DmQsIAMTwdj7hXKXLnD7EQ'
p1120
(dp1121
g3
I16252
ssS'NlEB4tZcB3ydxLFNgIZdmQ'
p1122
(dp1123
g3
I21509
ssS'GZZs7288ZoIz2hx_vcAVUw'
p1124
(dp1125
g3
I3031
ssS'Z4dxVDt4H9--txxfBLWvMQ'
p1126
(dp1127
g3
I26589
ssS'IsS1Af1iUgO3xHATc4xM6A'
p1128
(dp1129
g3
I11492
ssS'OZPRI3CpZ0D1pBGNkfzGGQ'
p1130
(dp1131
g3
I24435
ssS'66QlGdsWzms2vvy9GBj6iQ'
p1132
(dp1133
g3
I25975
ssS'HCBo0Kvfm9yXErR-YuqVGA'
p1134
(dp1135
g3
I20897
ssS'gV32nIyvNKZH5YCmMngyTA'
p1136
(dp1137
g3
I586
ssS'8i0HXuzSI_XSMTew4TL2Tw'
p1138
(dp1139
g3
I3048
ssS'VT-4bP-o0aUzRiosIj04dQ'
p1140
(dp1141
g3
I6619
ssS'S1ZeBo_GlzRLLTyOfu-Qnw'
p1142
(dp1143
g3
I22461
ssS'1ilmuWkVxYIb4rUjfxQ-Uw'
p1144
(dp1145
g3
I29189
ssS'ys187ij5Y9eeg5vxdZFLWA'
p1146
(dp1147
g3
I1929
ssS'ZZ43etAB2n_T53YBYtf8Dw'
p1148
(dp1149
g3
I7127
ssS'KzFKfC6q_s7i6mUt8Q43FA'
p1150
(dp1151
g3
I22393
ssS'-y0UY-IaRZvh-lKiEklJ0w'
p1152
(dp1153
g3
I24962
ssS'0cpYLEs1lvGL1jcOB0exQQ'
p1154
(dp1155
g3
I21223
ssS'dD7o67Ew415mUNhQSbo5rA'
p1156
(dp1157
g3
I26982
ssS'nte_amQXKvsNUPdS4zC60A'
p1158
(dp1159
g3
I280
ssS'x5pe4HYVDFL4dPcGJ6aerg'
p1160
(dp1161
g3
I18468
ssS'fYUkppl-3IORhJmBNV0GNg'
p1162
(dp1163
g3
I18296
ssS'zoJBalZn3RwhbT4yike37g'
p1164
(dp1165
g3
I24492
ssS'rT8O8PQN--RoGMry4QA0Iw'
p1166
(dp1167
g3
I13309
ssS'RHA5dSDzZuXXxXhzpVGCXg'
p1168
(dp1169
g3
I15429
ssS'XNUID_eWSQ_7EBl-tbmuTg'
p1170
(dp1171
g3
I11280
ssS'yLr81jnsx_F-S0AaGiee8g'
p1172
(dp1173
g3
I20085
ssS'kfqvIJd3o_sUvzAuvn1DyQ'
p1174
(dp1175
g3
I14374
ssS'6qL7A04QNfLAj5Tkig34YQ'
p1176
(dp1177
g3
I19494
ssS'ZW8jy6ehrNzn9A5iCubVGg'
p1178
(dp1179
g3
I19366
ssS'-JqYtB1-ncAiBP4HchtccQ'
p1180
(dp1181
g3
I27590
ssS'y88tKxe-6Su9vGr9uM5i6w'
p1182
(dp1183
g3
I14355
ssS'eeEj90eJiwYMLJfPW9kdxg'
p1184
(dp1185
g3
I11121
ssS'DqekGNe2lrLV4UI0V5-gcA'
p1186
(dp1187
g3
I25750
ssS'MkOdHkHo5-tppjYjWwcn_g'
p1188
(dp1189
g3
I3697
ssS'amIB4xSeMR260ZJF5AU2Cw'
p1190
(dp1191
g3
I28815
ssS'CcbyMkiKbGTO8Fz1bcAaVA'
p1192
(dp1193
g3
I22593
ssS'iKaZPk4wa1GlJzWsGB7leA'
p1194
(dp1195
g3
I9777
ssS's8MQdewIep_tnv-SJFLMxw'
p1196
(dp1197
g3
I27820
ssS'NlvWKd0eF3QEpgd9mlcOaw'
p1198
(dp1199
g3
I24676
ssS'ef3cFjUXJRFTvsDv1gYhUQ'
p1200
(dp1201
g3
I9315
ssS'xpwk5ofXWJf8pvuiPEo24w'
p1202
(dp1203
g3
I21383
ssS'-twmKuBk52lIrsJlP9gXZg'
p1204
(dp1205
g3
I717
ssS'X1Yo7jLIKhhvuyDp42epzg'
p1206
(dp1207
g3
I18862
ssS'uMKK1Ans4DrUsxlliIH_xA'
p1208
(dp1209
g3
I15772
ssS'ed5PO9jGfdaOjKcE0Kqb1A'
p1210
(dp1211
g3
I3216
ssS'_pKzyp0LqQN6KZVrWdvkOQ'
p1212
(dp1213
g3
I7424
ssS'lBw1sLg9KclUAbkQo8rFTA'
p1214
(dp1215
g3
I11870
ssS'rbJ-qICYEbuuizlzAt29yA'
p1216
(dp1217
g3
I7023
ssS'PRgn6fKjC1elU2tAMiG70Q'
p1218
(dp1219
g3
I15807
ssS'1VNkm_tLgWX4nwmNO_qdVQ'
p1220
(dp1221
g3
I5454
ssS'llGrym5a3eo_D16evG3G4w'
p1222
(dp1223
g3
I3596
ssS'x3k2jOCW1ZrWGFu9dNu7EQ'
p1224
(dp1225
g3
I23681
ssS'jKREh5elUSLGSNDNXF6e8g'
p1226
(dp1227
g3
I21920
ssS'CiOhn0KeZ4iYQYwzyW9pzQ'
p1228
(dp1229
g3
I20636
ssS'ge9HqSW0TFjSdyoervITtg'
p1230
(dp1231
g3
I25484
ssS'LW8oEmXd3aKY31mYMKfRXg'
p1232
(dp1233
g3
I8433
ssS'pVDAcUrUBTz9RGselQfofg'
p1234
(dp1235
g3
I14781
ssS'YTpSBg3DlYKSFl357F5-tg'
p1236
(dp1237
g3
I786
ssS'l2wXNANMmbq8RW7TE9hkog'
p1238
(dp1239
g3
I21332
ssS'rTT04qkMm97X6Aze7uBaEg'
p1240
(dp1241
g3
I20498
ssS'29KJZQaq0I60dpzQbazT7A'
p1242
(dp1243
g3
I14521
ssS'VL3-X2kM2u2Z7dFo-FXVIA'
p1244
(dp1245
g3
I22694
ssS'icqYMdlQi9tQujxn2Q2aVQ'
p1246
(dp1247
g3
I6354
ssS'fm65Yo2ShyryyYjQrk-4Ig'
p1248
(dp1249
g3
I12679
ssS'8PQrmHvZoZLANDu9UTnPaA'
p1250
(dp1251
g3
I3682
ssS'Y1PelgD3NvDHNoFuSM4aMA'
p1252
(dp1253
g3
I25552
ssS'8eSZ5VFUnFckouBgey0Rkw'
p1254
(dp1255
g3
I3959
ssS'aoWEW9HptH9SDZ5gG0kSlw'
p1256
(dp1257
g3
I12662
ssS'CkYRhkljat0qeLCoR9zrow'
p1258
(dp1259
g3
I24642
ssS'JLJPpYDBBVHy-gNCjY6iYg'
p1260
(dp1261
g3
I21554
ssS'K0YMZcrmKRPEQtvkxIebzA'
p1262
(dp1263
g3
I30201
ssS'V1_3yModtZm-WmHs1zbc7g'
p1264
(dp1265
g3
I5762
ssS'gOV8nHj7JIKHoBUJKHZPuw'
p1266
(dp1267
g3
I5862
ssS'fTCn0xh6lSlfeoEXiJt6Fg'
p1268
(dp1269
g3
I1835
ssS'ekmWBfg_7yqs04hRxaRlzQ'
p1270
(dp1271
g3
I11712
ssS'Grro2lOFAKXUgllQHseHZQ'
p1272
(dp1273
g3
I19652
ssS'StV0GklOU-zGAT4t0NqThA'
p1274
(dp1275
g3
I396
ssS'MfbH-4cBh0EXWd7IKEuEhg'
p1276
(dp1277
g3
I1006
ssS'wBA2rIs3CcbBZaf803s4tg'
p1278
(dp1279
g3
I3636
ssS'f2l2Trs6c0DbWGMMllmJHg'
p1280
(dp1281
g3
I8700
ssS'ATxbUTytzwQw7Ogu2SHGvA'
p1282
(dp1283
g3
I13051
ssS'6wLZOtaAAOTSC01OnOo8dw'
p1284
(dp1285
g3
I3463
ssS'3f7pq-BmkgbVG9c3nu16Hg'
p1286
(dp1287
g3
I10729
ssS'erPJP-Z5MYve0h9QeQN2Vg'
p1288
(dp1289
g3
I10158
ssS'40aklZ2SQPKnlTPZdvAqww'
p1290
(dp1291
g3
I26731
ssS'ac45qOONFZ3_r0KP3pe9OA'
p1292
(dp1293
g3
I10859
ssS'FUwYoUNJv7ExQeESj_gpHQ'
p1294
(dp1295
g3
I8263
ssS'L9-X4KASFfdhOeVeYSDgvA'
p1296
(dp1297
g3
I4376
ssS'tkav0HZR7BE1U3vohwkwpg'
p1298
(dp1299
g3
I16632
ssS'1MywGdJ5wFWsN9M4XexAtw'
p1300
(dp1301
g3
I646
ssS'2UTpsEcIhg8sJjbIrKhyDw'
p1302
(dp1303
g3
I12180
ssS'OrVtmaML9UI99bsYrV6IQg'
p1304
(dp1305
g3
I20046
ssS'EGO7_DKPIcUcXU3HUzx5og'
p1306
(dp1307
g3
I24425
ssS'FNazlCpcK3stSaJQzVIt3A'
p1308
(dp1309
g3
I6547
ssS'9v8IyMk_S6eJujux1Cno7g'
p1310
(dp1311
g3
I8481
ssS'IRxMNNQxIz4r2G-I39afWg'
p1312
(dp1313
g3
I21709
ssS'Ash3EbAfT0kZHBeezNByMg'
p1314
(dp1315
g3
I12342
ssS'XLHDwNRYynxd8oiyIvk7DQ'
p1316
(dp1317
g3
I26844
ssS'REMFtC6M7bHdbS3UO-8Jug'
p1318
(dp1319
g3
I4104
ssS'dbH_vee0-b5xzM0CSap8iA'
p1320
(dp1321
g3
I14080
ssS'gL8Hr3BZzUPTQ7hq0UfvCw'
p1322
(dp1323
g3
I4736
ssS'GKLLr7IQyycrfAtduvOR2A'
p1324
(dp1325
g3
I4079
ssS'3unUmylHLhFNBxG0QTWwPA'
p1326
(dp1327
g3
I24554
ssS'cX8xdi-jrcUuJyhrlYkkzg'
p1328
(dp1329
g3
I18331
ssS'ZdDmxmGVhHHI4PzmVdTzxQ'
p1330
(dp1331
g3
I1421
ssS'Ayld0r1gq3LIhZqUHi2Dyw'
p1332
(dp1333
g3
I9411
ssS'nP2HH7Qe5UtSsjeEH3NZuQ'
p1334
(dp1335
g3
I20447
ssS'i9wA8ism3d70La_uDGyp9Q'
p1336
(dp1337
g3
I17136
ssS'4z6hF5oyqr-KQ2hY64TqjQ'
p1338
(dp1339
g3
I27217
ssS'mICp2bqrAhs-WwX55KieNQ'
p1340
(dp1341
g3
I18798
ssS'tB8uP59GzhFh6H_AqiJaoQ'
p1342
(dp1343
g3
I16160
ssS'UvV3nDUA-valFvrdBDsj5A'
p1344
(dp1345
g3
I22491
ssS'5sEo0kBtAdp-GPPEGw1huw'
p1346
(dp1347
g3
I16900
ssS'xzo04PmYlNf4NgYtTuuYsg'
p1348
(dp1349
g3
I13605
ssS'FOzh9ltCpba51HmZB0Jz0A'
p1350
(dp1351
g3
I22500
ssS'EJqKCd88V_lcNSiduLq3aQ'
p1352
(dp1353
g3
I11336
ssS'0s9JSyGJP5Z37blnIJNBow'
p1354
(dp1355
g3
I18347
ssS'xxbE_21cCU1VYNyiz9HSVw'
p1356
(dp1357
g3
I4015
ssS'M_u9DrSK5T2VO74Efjhobw'
p1358
(dp1359
g3
I27745
ssS'Di4HUwIcNi7s5Y-hnWcCqA'
p1360
(dp1361
g3
I16353
ssS'BEe04ziifpSkBdKsCSAUXA'
p1362
(dp1363
g3
I5170
ssS'WGTEuxi9I5LBLjdUB7Pk_Q'
p1364
(dp1365
g3
I20060
ssS'8cJ-n5BEb1LAR0qFM9zrxg'
p1366
(dp1367
g3
I8991
ssS'6_uj1ivs0JB_5let8Fh79w'
p1368
(dp1369
g3
I13169
ssS'dP-W9Bd6EiFLJ2A59_rJzQ'
p1370
(dp1371
g3
I19060
ssS'v0e9jDvYiD5qaO3im25ufg'
p1372
(dp1373
g3
I20604
ssS'5c5bDvjmI_7C0Qsi5xhXPA'
p1374
(dp1375
g3
I2174
ssS'KIKmorsGu-a86NwcoTTiTQ'
p1376
(dp1377
g3
I19474
ssS'qHGTGqVx_lCPQCg-NK9T8g'
p1378
(dp1379
g3
I22376
ssS'UuheIN0A5r6iWgpowFZ1mQ'
p1380
(dp1381
g3
I22837
ssS'9fQYJHkvhb7pS6FY0Q-19A'
p1382
(dp1383
g3
I24412
ssS'tEW1tsLa3IGXujlfDvlpkQ'
p1384
(dp1385
g3
I7189
ssS'Hi9Ht9XXrPdhSdxPukXNBw'
p1386
(dp1387
g3
I26669
ssS'uibHz21Rn5XTp-sw21jcQw'
p1388
(dp1389
g3
I25622
ssS'ShMMmWHd9-P_P4Jl5B7Zkg'
p1390
(dp1391
g3
I20568
ssS'd7YWUKgEZWbRQ8Sp9tvUoA'
p1392
(dp1393
g3
I25363
ssS'lm6DdEH7Vn0qx1Rw4OtudA'
p1394
(dp1395
g3
I2617
ssS'FtUkiW8VahdRcj0eRCJzxA'
p1396
(dp1397
g3
I13568
ssS'jNa3AWrLsOn8EqjkHxEVbg'
p1398
(dp1399
g3
I19655
ssS'XnLKzryyEY7PIz5W-TuNuw'
p1400
(dp1401
g3
I10508
ssS'YbzNTSCn3xiPMFqYANi5fA'
p1402
(dp1403
g3
I24074
ssS'DmTiFfB9pLbF_QvKx_03fQ'
p1404
(dp1405
g3
I23192
ssS'gvLzuWRhEyFcfF-RymhhFg'
p1406
(dp1407
g3
I14722
ssS'nqEX73pC0MwyzOQDG09V6g'
p1408
(dp1409
g3
I5222
ssS'g4SIb5n6lKeZIVed2Wr7fQ'
p1410
(dp1411
g3
I28842
ssS'BMaSKG7JmKK1-YumiegGTA'
p1412
(dp1413
g3
I18868
ssS'6cy3H5ihKjr20c7ujYGpgg'
p1414
(dp1415
g3
I16024
ssS'39fBaSkch83WRI7JO0LcPg'
p1416
(dp1417
g3
I22197
ssS'9xgwk-4c9JA66moxMk0AMw'
p1418
(dp1419
g3
I17150
ssS'ndgeoS4XtNfEt9GXFkvGvg'
p1420
(dp1421
g3
I9908
ssS'EeR-0JkwA4wsu7D2lgJ9pw'
p1422
(dp1423
g3
I24297
ssS'Siu_7egwCsmjb5PDUCTu-w'
p1424
(dp1425
g3
I21354
ssS'4kwfKg6E334tIOY3DZcXaQ'
p1426
(dp1427
g3
I17649
ssS'U9yEiMEK72iROMPdWzqOfA'
p1428
(dp1429
g3
I25274
ssS'5JzjN1XhxHA1Bx3x5ectYw'
p1430
(dp1431
g3
I19003
ssS'JA5xlhDIunDFobuVF4D5pg'
p1432
(dp1433
g3
I2265
ssS'Bj--kVuMa9h_Ouiert0I1A'
p1434
(dp1435
g3
I22193
ssS'jwWI_EAAPoUuFkyFiJxNbw'
p1436
(dp1437
g3
I22171
ssS'njyqdZryeHBwD7LdRN9Epg'
p1438
(dp1439
g3
I17278
ssS'yJ8A_iGJO1aqXr9HY2QhjA'
p1440
(dp1441
g3
I13361
ssS'LzJiT-EHw-Px2MbOTl_kaw'
p1442
(dp1443
g3
I7700
ssS'9TfxiASay9fKiS0XqffSAQ'
p1444
(dp1445
g3
I5632
ssS'qcyfwA7umIE9bOJaHkpvng'
p1446
(dp1447
g3
I6542
ssS'aozfBsJY8OB4KQcFVgsWQw'
p1448
(dp1449
g3
I14073
ssS'lC10v5w-0oxUWrZrhGxqCQ'
p1450
(dp1451
g3
I9309
ssS'DxunzEyOqnHni1d3862WqA'
p1452
(dp1453
g3
I28582
ssS'xvnjvMJn_Nhfbni3nfopKw'
p1454
(dp1455
g3
I16613
ssS'16ore4BzhF3XCa9OpDFE5g'
p1456
(dp1457
g3
I15611
ssS'0eeUhtjuVjnYY2dNTVWQQw'
p1458
(dp1459
g3
I25566
ssS'7-ly4LI9XWLXkFiM2vHxrw'
p1460
(dp1461
g3
I26056
ssS'YYkxHHrY1ERK0wtzk1fclQ'
p1462
(dp1463
g3
I11214
ssS'fMyKbyYY9Poy9B_1QZPKcg'
p1464
(dp1465
g3
I22074
ssS's7vLpMJLYz2b79mawpS7zw'
p1466
(dp1467
g3
I27059
ssS'jnhnClOy9H2_MUOK59MFsw'
p1468
(dp1469
g3
I13888
ssS'lb5pErH3KS2hBLHu_CWMTA'
p1470
(dp1471
g3
I1137
ssS'6kx6p75eV3_Wk1ThkdP7FA'
p1472
(dp1473
g3
I11090
ssS'RwJ8kxoPmfWxscuZ77a0cQ'
p1474
(dp1475
g3
I11262
ssS'gNF8usOGLdvdJL4aVp8IOQ'
p1476
(dp1477
g3
I20332
ssS'kMU97vROYOZsIiJ1qyCdnw'
p1478
(dp1479
g3
I9972
ssS'vwL7aDQ4GdkGT-bVwb8AOA'
p1480
(dp1481
g3
I28037
ssS'3ONc5yp1a-fq2zsrb-qQMg'
p1482
(dp1483
g3
I14719
ssS'z2FHsDtPqhhJg00-xn4EcQ'
p1484
(dp1485
g3
I4509
ssS'syeVHkzH1kvf_u1CseOuCQ'
p1486
(dp1487
g3
I17135
ssS'C12o5ftQjGEcafBN0upnHg'
p1488
(dp1489
g3
I12646
ssS'J46JyRtoOa2iITZbG8VhkQ'
p1490
(dp1491
g3
I899
ssS'ka0Zl3em2LMYX48FvJp33A'
p1492
(dp1493
g3
I20467
ssS'2ROwNmjIV_D5wx5H0zElaw'
p1494
(dp1495
g3
I5806
ssS'qZHxAphee5-25WRZG4FqSw'
p1496
(dp1497
g3
I13265
ssS'Z5lzogi81LxKko35b50M-A'
p1498
(dp1499
g3
I7421
ssS'1prjit4TbpBBN9y2qlS_8g'
p1500
(dp1501
g3
I10827
ssS'9coCqxWYUetlN4C0ecmuMA'
p1502
(dp1503
g3
I7631
ssS'KZubvK7Jwmz6JlI3UhqYEQ'
p1504
(dp1505
g3
I7185
ssS'mKRNMjsr8njCgSINEUZb5A'
p1506
(dp1507
g3
I1926
ssS'CDL-h1vQZS-rEFRYBGy3nA'
p1508
(dp1509
g3
I28391
ssS'2uIF-P-YkMt6aFMV0zVskw'
p1510
(dp1511
g3
I13659
ssS'VHVRW1Nssny2VaDF3Of-uw'
p1512
(dp1513
g3
I28008
ssS'X-RxQRMPzDIQi5fAZkLgEw'
p1514
(dp1515
g3
I29589
ssS'gpMsx8fRxIJll53tvF65LQ'
p1516
(dp1517
g3
I461
ssS'3h2q8SdK4BN12VRJ4hJ3Yw'
p1518
(dp1519
g3
I25553
ssS'H-mAG5xC7DUidJgQW93Idw'
p1520
(dp1521
g3
I26355
ssS'w3Dnp7JDrwmPCDZ6Zf-uOA'
p1522
(dp1523
g3
I23389
ssS'lPmI1GB8pJB_7_scdnBGOQ'
p1524
(dp1525
g3
I3769
ssS'YRlNfKmdbbLTHiQadUok9w'
p1526
(dp1527
g3
I25887
ssS'svg8Sri5eRg9wDp4c5GW1A'
p1528
(dp1529
g3
I30016
ssS'u9dFxlc33_gCM4f1rDL1Ug'
p1530
(dp1531
g3
I7906
ssS'-HNWRq-i2OS19IDjsUlxdQ'
p1532
(dp1533
g3
I3263
ssS'1hSa_d03-4hrVktlrNNCWw'
p1534
(dp1535
g3
I25158
ssS'V5SOpcPoul01FuTZdwj59A'
p1536
(dp1537
g3
I16473
ssS'6ULZ5BFxiZHcR8sDib_mbQ'
p1538
(dp1539
g3
I20466
ssS'UqRsXvlnI3ioAY6DxJsRcA'
p1540
(dp1541
g3
I9748
ssS'GAEHo1uslNOouKy5k_v3tg'
p1542
(dp1543
g3
I25979
ssS'6JfX1T6WZIKNQCbzEBnRjA'
p1544
(dp1545
g3
I1616
ssS'bIZiqk9KkgrnVizFB5feLA'
p1546
(dp1547
g3
I24395
ssS'KlFHGN1f7my7HLvFl2qQDQ'
p1548
(dp1549
g3
I21808
ssS'1ieuYcKS7zeAv_U15AB13A'
p1550
(dp1551
g3
I2936
ssS'CcdJ_VhU_zqe2fL7G3eXug'
p1552
(dp1553
g3
I2289
ssS'P3BIYP3-onZ8FuA_4usY6Q'
p1554
(dp1555
g3
I14436
ssS'lQYlkcgiP2k6ch9w5NdwFg'
p1556
(dp1557
g3
I2917
ssS'TNUX-baP2gvFDajjErgsFw'
p1558
(dp1559
g3
I19752
ssS'lJnBQwGGTUad4m4MbWIv0A'
p1560
(dp1561
g3
I22219
ssS'qyvIZcJqVzcVacXY7I8TNA'
p1562
(dp1563
g3
I18344
ssS'HjijsBrBq1iKqOmBEuXhaA'
p1564
(dp1565
g3
I13094
ssS'PoQOIZc2q5nud7uVz_jdjw'
p1566
(dp1567
g3
I2994
ssS'44o1P-YxDB-1vpd1SLf9aQ'
p1568
(dp1569
g3
I18539
ssS'UC-3TLiLZyekTUed7PyJiw'
p1570
(dp1571
g3
I13222
ssS'J-BjROYmHmxkUtZPc-c9gg'
p1572
(dp1573
g3
I5158
ssS'2oLrsYH_qguhTNlm3j8T1g'
p1574
(dp1575
g3
I18509
ssS'l5o2EBzzrATezHfitXoHVg'
p1576
(dp1577
g3
I13884
ssS'KNiGdjQG-eaeyDehdOD9mw'
p1578
(dp1579
g3
I18185
ssS'zhyn4i4uW06BS2FFSdmjUA'
p1580
(dp1581
g3
I17062
ssS'vJ1M0MRJoTGDFOuPwowb9w'
p1582
(dp1583
g3
I10334
ssS'DzD2p4Ec87NQvVwlpEdhJg'
p1584
(dp1585
g3
I10569
ssS'blq69ybcp8Js6nms8f7DkA'
p1586
(dp1587
g3
I16932
ssS'OjPYJxpkm_xDIiZAquMEIA'
p1588
(dp1589
g3
I28906
ssS'Mh68K_pNLJgGaK2chKcGzA'
p1590
(dp1591
g3
I22386
ssS'0cOr6YX61FwOkVM1uECbvA'
p1592
(dp1593
g3
I21979
ssS'wqc2Lu0wVcd08hhFHiodkA'
p1594
(dp1595
g3
I15869
ssS'G_EF7WnaLjMduDasUlm4hw'
p1596
(dp1597
g3
I7537
ssS'drBJE2yusXCZ5c8dEuomig'
p1598
(dp1599
g3
I5125
ssS'feDtiv33q5Td6HvmiKDYoQ'
p1600
(dp1601
g3
I7841
ssS'VLSHpVGZUgxHY6qc-UnPKw'
p1602
(dp1603
g3
I29787
ssS'hW2XQMGHy5_TW7dnijZR6Q'
p1604
(dp1605
g3
I2412
ssS'ngR1Y009kpsuqWRdlKp7hg'
p1606
(dp1607
g3
I18303
ssS'G1-w0h0Y668DZfjxuVJPgQ'
p1608
(dp1609
g3
I25333
ssS'ng0CpusC7YqfmOmNNw9phA'
p1610
(dp1611
g3
I25639
ssS'8w23JX96mElm3ViwtS_WKQ'
p1612
(dp1613
g3
I2939
ssS'ZyN4s1x50gFmZ8fUo_-MgQ'
p1614
(dp1615
g3
I16985
ssS'DQkxGKQYn3W7cv_Nsd9bsA'
p1616
(dp1617
g3
I15402
ssS'Fx5EwCE5f_BDMjgRmRxLUw'
p1618
(dp1619
g3
I18437
ssS'ocQkz4oMy8tofhnTYHwaaQ'
p1620
(dp1621
g3
I13820
ssS'w-YiLaVcs-snh3RZSA4OLQ'
p1622
(dp1623
g3
I25233
ssS'IN49cEfDQTbhr_SaL9y1OQ'
p1624
(dp1625
g3
I17365
ssS'kGSjE_fh9ljiKrhM0Aon0g'
p1626
(dp1627
g3
I24337
ssS'sW9EBhiRYOneugKBCQbhIQ'
p1628
(dp1629
g3
I588
ssS'3WBOmP8ldL3JX8GaH6mTJQ'
p1630
(dp1631
g3
I7390
ssS'sIBfPxJNBwhnWlySR0kAhw'
p1632
(dp1633
g3
I2678
ssS'K32fI8A2Tq5KhxfVdlgDkQ'
p1634
(dp1635
g3
I21458
ssS'KaH92FD6leDjvhMcJSu4TQ'
p1636
(dp1637
g3
I12262
ssS'Py-iGXvODnHodfVXWmpaTg'
p1638
(dp1639
g3
I11934
ssS'HFSw16mQIu-rDZCQzYbnCA'
p1640
(dp1641
g3
I11665
ssS'rTSSXGG2OJ74CXKHV6tjGg'
p1642
(dp1643
g3
I12464
ssS'HaDEZSNSTNFmq6laVB6ZMQ'
p1644
(dp1645
g3
I5217
ssS'4eraKSgRK92ryGuAOBnLgQ'
p1646
(dp1647
g3
I23586
ssS'Hh1KBFMjP5qmwI5AwPOfcQ'
p1648
(dp1649
g3
I2967
ssS'lgHiNylLvG68L_WchVpVeg'
p1650
(dp1651
g3
I30178
ssS'tYoSVgSSBKkJC85OO3bbPQ'
p1652
(dp1653
g3
I7548
ssS'6py4k4px7PjoSAaeFAOGFg'
p1654
(dp1655
g3
I16405
ssS'TSRE-XA8J9WMsyBbnZJzBQ'
p1656
(dp1657
g3
I17514
ssS'WEBOUozznIdu0hJHcXDyLA'
p1658
(dp1659
g3
I6487
ssS'S5Re9lLG7np8zew8sOlJDg'
p1660
(dp1661
g3
I1078
ssS'yY1MgFvfDVDhotp3xWJLlQ'
p1662
(dp1663
g3
I24547
ssS'i-6dKtfTmTA0waH44CGVhg'
p1664
(dp1665
g3
I14462
ssS'lu-9OQbMEPzYBAKrvZ7NOQ'
p1666
(dp1667
g3
I17106
ssS'vgJ6GBq4LhodB2P_S69jOw'
p1668
(dp1669
g3
I24710
ssS'PI9aKQvJjckXrAkTxpIdig'
p1670
(dp1671
g3
I12502
ssS'C1cv0JYSBCJ-Qw4zX6ZUoA'
p1672
(dp1673
g3
I252
ssS'se1MhJQo--MXlfYVTymOBg'
p1674
(dp1675
g3
I27442
ssS'_SiErghkqBPrzi9WHc_bvg'
p1676
(dp1677
g3
I7408
ssS'PuvVkwHXoJQgFhTjYA5Qug'
p1678
(dp1679
g3
I10277
ssS'JQ9BSyxG1ehzFo7YV7SuLw'
p1680
(dp1681
g3
I6427
ssS'-ZDJ8KSpOHhCPrwi6F-_Ug'
p1682
(dp1683
g3
I3932
ssS'NWeEAnBxuRtYrqa-4K2iOQ'
p1684
(dp1685
g3
I1845
ssS'FDtaLSI5wI5sO4h5ByuE8A'
p1686
(dp1687
g3
I16650
ssS'd4zmaIWxokvb0RBDS3wjqA'
p1688
(dp1689
g3
I7562
ssS'ueFG4iLS8AGlDsT3Y41dmA'
p1690
(dp1691
g3
I25848
ssS'xP6Ymi-45cEbCwldFEQz7g'
p1692
(dp1693
g3
I1932
ssS'S4jQ4VCs1-EgKdNQ3XbboQ'
p1694
(dp1695
g3
I23780
ssS'g2mozOU_F1nzpjLDY4CfzQ'
p1696
(dp1697
g3
I3537
ssS'aqzDiZ9SDKLi6J6mmEF82g'
p1698
(dp1699
g3
I8843
ssS'ZKHEo5_15rAGZ_4UChGdvw'
p1700
(dp1701
g3
I18977
ssS'FtlNCfmn5d6qHTGAR1kVCA'
p1702
(dp1703
g3
I15797
ssS'xrS-aas8BP9n7C3heJPWog'
p1704
(dp1705
g3
I24696
ssS'J3AyF_autcguJJKk1NWWig'
p1706
(dp1707
g3
I16783
ssS'2mQpxWifARjbp7H1rehVrQ'
p1708
(dp1709
g3
I12997
ssS'faf0DAFOXUplDKjvmtNqbQ'
p1710
(dp1711
g3
I22093
ssS'deMJEeje7CnjGR5L2mzx0Q'
p1712
(dp1713
g3
I23563
ssS'GXgZEnuAKURhHwANOpHmtg'
p1714
(dp1715
g3
I7098
ssS'TUYFH3iFSwMykWVxNW3Gog'
p1716
(dp1717
g3
I20559
ssS'DqircqHkP-VXgSh0b8MboA'
p1718
(dp1719
g3
I20356
ssS'1LfUXEdm0O3qhEqkKZjztA'
p1720
(dp1721
g3
I10159
ssS't8m_uLjyeo_IdqXAqyG0mw'
p1722
(dp1723
g3
I18732
ssS'Gn1R_L347w-BJg_Noaa9-g'
p1724
(dp1725
g3
I21348
ssS'EtRqkcj-ckGrJCazrdzR_g'
p1726
(dp1727
g3
I12693
ssS'L22-iav7gTS5r6QG-OESyA'
p1728
(dp1729
g3
I4206
ssS'eu4EDnp3n86L5LtZGrb2EA'
p1730
(dp1731
g3
I12619
ssS'3GuWjAJOPNCRxK2_0rEoBQ'
p1732
(dp1733
g3
I19048
ssS'ArvjnHPJyq4WQT1f5fH6OQ'
p1734
(dp1735
g3
I26850
ssS'E-2gAPE8tJfMgKgXbr3xjg'
p1736
(dp1737
g3
I23497
ssS'6yzWWYM5ZBGRKZS-8I3EQQ'
p1738
(dp1739
g3
I13906
ssS'DZm20Z2tH25wKfyVkpmF4g'
p1740
(dp1741
g3
I25810
ssS'1c_ZLY_JZbV0Ir7eIKQMDA'
p1742
(dp1743
g3
I24968
ssS'qQb4pg5uqvjMOfGPWbIkeQ'
p1744
(dp1745
g3
I1193
ssS'nCy31UqpvcAe6zyzeFgtLw'
p1746
(dp1747
g3
I17894
ssS'-L0i4tIcOIbAq_gPvykkLA'
p1748
(dp1749
g3
I29523
ssS'qAYRzi43xCjajRjnr-Mxbg'
p1750
(dp1751
g3
I7108
ssS'TERYbNsVh15hT4yxPAXBew'
p1752
(dp1753
g3
I30145
ssS'7pMhOAnOeU-GSnJ9NUrnrQ'
p1754
(dp1755
g3
I9652
ssS'VsSo010Yam-x23qbtJMluA'
p1756
(dp1757
g3
I13019
ssS'gUPlQfk4AzerHjZoQSu2Aw'
p1758
(dp1759
g3
I8664
ssS'pEEEoOUp4OKZS41oIkRyxQ'
p1760
(dp1761
g3
I22373
ssS'o_hE7YEoqz_NqAzkLUenyg'
p1762
(dp1763
g3
I19536
ssS'rVKYIiZ964D7Nf1iFqR78Q'
p1764
(dp1765
g3
I20907
ssS'h9XcVkBgBE55WFZDSplxLw'
p1766
(dp1767
g3
I10694
ssS'6rx94sVPYHwIk2SzxWFkqw'
p1768
(dp1769
g3
I15417
ssS'MhstQhAnGqyAAFaujPYAFg'
p1770
(dp1771
g3
I6111
ssS'4B6aJJTELjivUXrL_LTlqQ'
p1772
(dp1773
g3
I3900
ssS'O_yh4s4UMIQpgOr9cbOOuA'
p1774
(dp1775
g3
I613
ssS'o8J-ergbGYjrUy85I_rxzw'
p1776
(dp1777
g3
I24043
ssS'2SSHbXmy3K3BzBhojhNUAA'
p1778
(dp1779
g3
I11165
ssS'JgufYQ94cHyEo9b8StajnQ'
p1780
(dp1781
g3
I22601
ssS'JC7nd7_Vf3QL9-PAnEpU7Q'
p1782
(dp1783
g3
I23502
ssS'8jYpVtXf9qFl_NS5yWhlbg'
p1784
(dp1785
g3
I503
ssS'2KvxS3HmcOOXj2pCm8o6TQ'
p1786
(dp1787
g3
I13441
ssS'LQDnciGomjSi-6aubHdE7w'
p1788
(dp1789
g3
I7805
ssS'IOAcBY2YzTn-x6b4rwd9uA'
p1790
(dp1791
g3
I4571
ssS'ARe8Nr_YehB2ubsGJhZ-hg'
p1792
(dp1793
g3
I6406
ssS'jGPP4dZSBLRhwjgPMSIB-Q'
p1794
(dp1795
g3
I27068
ssS'zB4Hudnc4a_2r7wTDXP3Iw'
p1796
(dp1797
g3
I29407
ssS'laylYrDD5QeVqbQ20Oc6ew'
p1798
(dp1799
g3
I5769
ssS'UZysWMlFjuMWGTC2qYmIZw'
p1800
(dp1801
g3
I7232
ssS'cK_yP1K6zw1Mr4GD_EX-AA'
p1802
(dp1803
g3
I701
ssS'eOdjYCYvA_PKMMMbuz7Luw'
p1804
(dp1805
g3
I21050
ssS'XonXXh-iRudhbzAqztUPKQ'
p1806
(dp1807
g3
I16835
ssS'dTjoI4fHM2cIR67HjErMXg'
p1808
(dp1809
g3
I29304
ssS'OUi1t0WF_tXxpPiXuiJIsw'
p1810
(dp1811
g3
I24456
ssS'Uqkha8hDld5Y6f0VK3aWWA'
p1812
(dp1813
g3
I26688
ssS'CfvJXMBOLnqQSkk6kNdLww'
p1814
(dp1815
g3
I15214
ssS'31-_ctgdxvTLsPBKdRFf1g'
p1816
(dp1817
g3
I2765
ssS'J78I_XBYrU8buK3c1Pomrg'
p1818
(dp1819
g3
I8122
ssS'eMGa4yDSGPZxxI320i95cA'
p1820
(dp1821
g3
I21197
ssS'_00XHr9on_5mWtaiYtdZjg'
p1822
(dp1823
g3
I17955
ssS'Tg-tBEwZAaJk1r7u7WboTA'
p1824
(dp1825
g3
I5813
ssS'wdHVPmnzI3RHi5kbCswzHQ'
p1826
(dp1827
g3
I29023
ssS'5IVAXIiI4Rg4JJ8E5waZOg'
p1828
(dp1829
g3
I16070
ssS'tDSDuMzwQiI44W8cfxU68Q'
p1830
(dp1831
g3
I26880
ssS'kAd3S22Y4Q2RCzV48J2zZA'
p1832
(dp1833
g3
I15038
ssS'p11en60b-gIg2z6Bmb6Iag'
p1834
(dp1835
g3
I22301
ssS'odLBL37pT5T9hqcfzDifoA'
p1836
(dp1837
g3
I25911
ssS'KDTxm8pwg9IIneY652do7g'
p1838
(dp1839
g3
I27642
ssS'HzfWEVSxEVx58Le48JvrpA'
p1840
(dp1841
g3
I11001
ssS'XqDh0QDMoMAaBvJcakze5A'
p1842
(dp1843
g3
I10216
ssS'3fAs2AX2nNsAqju8ltnMAw'
p1844
(dp1845
g3
I14417
ssS'gjjkTERKZVdJtjQNcV2bCw'
p1846
(dp1847
g3
I2346
ssS'RqS7nhOWegx2Cats1Gd-Pw'
p1848
(dp1849
g3
I26752
ssS'EehnHRG06iGmahgtYgrgNQ'
p1850
(dp1851
g3
I5408
ssS'1mo5AlwtZujuDlw8M0rjxg'
p1852
(dp1853
g3
I23320
ssS'J_zxvVNx2V4fa8kPHvupSw'
p1854
(dp1855
g3
I7130
ssS'TzUA6A_hNIR9segl35Qpqw'
p1856
(dp1857
g3
I7797
ssS'5xUUzFaKAcrFOPTgMKBfww'
p1858
(dp1859
g3
I29404
ssS'J2L8E6dYS66cKkV6SHujuA'
p1860
(dp1861
g3
I11502
ssS'6b30VTsCd_djJQJgoGi_Dg'
p1862
(dp1863
g3
I14912
ssS'D5JJ8KWQq5i03PHzPFVHBA'
p1864
(dp1865
g3
I11565
ssS'aRL6FP35Nn5TNoLFBZSaCw'
p1866
(dp1867
g3
I14133
ssS'Ac2Q1vJvJwudYOalYwSH9A'
p1868
(dp1869
g3
I12769
ssS'qQ8geRUACGaYC2c7OgHTug'
p1870
(dp1871
g3
I22872
ssS'pfCP7Se_N-isKy6N0yZZrA'
p1872
(dp1873
g3
I20788
ssS'j-6Lsu1QXEu8tYshLLF12A'
p1874
(dp1875
g3
I25920
ssS'zxcrlC3cmH5S2TGIxuLwBw'
p1876
(dp1877
g3
I24266
ssS'XWKi0iHiuSm8vHQR3ty8dQ'
p1878
(dp1879
g3
I7696
ssS'5YFmp4XR1W0DnGMGmVv2iQ'
p1880
(dp1881
g3
I12135
ssS'yKwixep2z46EoUVRU0oSPg'
p1882
(dp1883
g3
I19590
ssS'at0SbiuPD0OvO7KnTAGBsQ'
p1884
(dp1885
g3
I6077
ssS'TYSt-XW5z0UXj02v0eW56w'
p1886
(dp1887
g3
I3616
ssS'T14AJwqpdy9s5AzOm2PpOQ'
p1888
(dp1889
g3
I17707
ssS'Ig3jjxFWCYy_gVv8gKwqOw'
p1890
(dp1891
g3
I3860
ssS'Bvf5pkTsVQMiG1r3QF_0Yg'
p1892
(dp1893
g3
I25024
ssS'er0hbynrnW4YaIJknvXN1Q'
p1894
(dp1895
g3
I18335
ssS'YsPqt0gxG60l0cJvHl_ylw'
p1896
(dp1897
g3
I11374
ssS'FjuKD2eeFagxHN6E0QYB8w'
p1898
(dp1899
g3
I28673
ssS'8j8lbMc6VPU4WZaLemsIRg'
p1900
(dp1901
g3
I2709
ssS'ntOXl1My22nSzZ-L392g8A'
p1902
(dp1903
g3
I13023
ssS'NAEibj1B6RSgeI_luEbctA'
p1904
(dp1905
g3
I7663
ssS'YnPOkm_7YWSevugsrMSnVg'
p1906
(dp1907
g3
I16992
ssS'sYw9WA1a-fNyyCGH3ZZntg'
p1908
(dp1909
g3
I24929
ssS'QD9zFX06J6Nqi8Ph_CE3CQ'
p1910
(dp1911
g3
I16240
ssS'uJct4BXIvwzQ51-rkrSGFw'
p1912
(dp1913
g3
I25038
ssS'IwVqWgf4u_GZq6ytwCM_mA'
p1914
(dp1915
g3
I27719
ssS'zYObW_mjynTUtRqrXcUKIg'
p1916
(dp1917
g3
I26892
ssS'Sek3oLIIHtBSTSFh9z3pXQ'
p1918
(dp1919
g3
I27488
ssS'vfLWNZ4ngK-fVFBI55pw3A'
p1920
(dp1921
g3
I11715
ssS'P-u6b0n8wbg6eEtdAsSvEQ'
p1922
(dp1923
g3
I27189
ssS'VAbXo_Lok6r5OBS0nPEsJA'
p1924
(dp1925
g3
I5948
ssS'KRmbMjFVn3tITCJNEt1ejQ'
p1926
(dp1927
g3
I17209
ssS'nxkHZn3afvqkRX8TJ4TvKw'
p1928
(dp1929
g3
I5149
ssS'MZfzynK-tKu5Lg0GbrAgpA'
p1930
(dp1931
g3
I7961
ssS'JZ6AVr_albuoNprmHABsog'
p1932
(dp1933
g3
I13041
ssS'9B_VU97UoYgR0WLbU8dikA'
p1934
(dp1935
g3
I17532
ssS'2_tOvm9THqfuxiXSxbE7Zw'
p1936
(dp1937
g3
I30094
ssS'SpP5SyUZ3F5ITqOqn0f3DQ'
p1938
(dp1939
g3
I29860
ssS'rzDI_UhXhxbcU_saGfo3Zw'
p1940
(dp1941
g3
I27419
ssS'9mf3KnoyEtWPEGUI2Refpg'
p1942
(dp1943
g3
I13651
ssS'ATYLWSu6RdJ3SWeR_ajRpw'
p1944
(dp1945
g3
I1218
ssS'NKcsDDgHh7MPbWODXQDhyw'
p1946
(dp1947
g3
I18966
ssS'NT0lSOTRV8OMDUAOsjbGfA'
p1948
(dp1949
g3
I10440
ssS'jDIloYYv47DJx8S2xQYsyQ'
p1950
(dp1951
g3
I29907
ssS'XK1KQylpiv89x5Fa3qAIjg'
p1952
(dp1953
g3
I30038
ssS'eBr1galTHhQnZAUUgTJ7kg'
p1954
(dp1955
g3
I6352
ssS'V-kXR3_zr1wCbVZ1Fz875w'
p1956
(dp1957
g3
I3528
ssS'U15ZA0OLczLHFglNnipZeg'
p1958
(dp1959
g3
I13158
ssS'rAAgOfBRswWzbBhcmyyUMA'
p1960
(dp1961
g3
I29128
ssS'mwRI6AnFlFWvh8WC2K6wkg'
p1962
(dp1963
g3
I15953
ssS'a5kDCrf8lvX19EHrqPmAog'
p1964
(dp1965
g3
I19017
ssS'7i8MGa7zyWmaQli6o2-29g'
p1966
(dp1967
g3
I17049
ssS'rTMsw1YYYQhzrXX9ovtLJw'
p1968
(dp1969
g3
I8121
ssS'FjRD-rOKBu9SI7HMMXIZBA'
p1970
(dp1971
g3
I23854
ssS'f0L05SHkV0lBl3jtJlNG4g'
p1972
(dp1973
g3
I27765
ssS'qdtRCwO1jcD85xtLY8XYmA'
p1974
(dp1975
g3
I17733
ssS'V0bAx6k4XWcYT8dr_0-JLg'
p1976
(dp1977
g3
I25479
ssS'DFQ95g3s1oi-VcDZEO2TOA'
p1978
(dp1979
g3
I10817
ssS'6eUGEQ1pVqh6CSMnLnWRMQ'
p1980
(dp1981
g3
I25193
ssS'9rCbgSsk4DZ-14bQ0MnUuA'
p1982
(dp1983
g3
I16535
ssS'ssehtakfUNNfQUeOTI8YaQ'
p1984
(dp1985
g3
I20139
ssS'oac8BbBrsNqxYz5wk1k9cA'
p1986
(dp1987
g3
I6702
ssS'037gJ6fmcXCW1ajls5tr_Q'
p1988
(dp1989
g3
I28814
ssS'e4o0o5Nl-nccO29Dx6ccfw'
p1990
(dp1991
g3
I1538
ssS'7T7oXOr2BOtIZs0WDsKQng'
p1992
(dp1993
g3
I15567
ssS'8SsgD4VymiDDTZiZ0CEs0Q'
p1994
(dp1995
g3
I29934
ssS'u48NDKZ8JVz-ohTWQ_gSqQ'
p1996
(dp1997
g3
I26169
ssS'N3bri-C_pZ-rvY6FSYeZCw'
p1998
(dp1999
g3
I15711
ssS'ydiBmfImToat51aBMD8naw'
p2000
(dp2001
g3
I13847
ss.