(dp0
VKH-KeYKyD930J9-FfSJqOg
p1
(dp2
S'node_id'
p3
I177
ssVlpyN2FydeLSpENyU1klW0g
p4
(dp5
g3
I212
ssVyneluytnFRAf-s4i3JDbIA
p6
(dp7
g3
I18
ssV3PleJJEDyGLIWqaW7JlTyQ
p8
(dp9
g3
I202
ssVb35fzV7F43qt5Q1PY_R_Nw
p10
(dp11
g3
I125
ssVEUgv13qRQ0OhmG40x_fcFg
p12
(dp13
g3
I31
ssVprNDsstT2y8g5lT2LG9NPw
p14
(dp15
g3
I172
ssVpx2RiQ7zbM9BR9ALuwkJfg
p16
(dp17
g3
I67
ssV5S3qIi-EHG634Mx-_mpBQg
p18
(dp19
g3
I75
ssVp_n5gwvyOGnGbCyAYsj74g
p20
(dp21
g3
I114
ssVE9jtD7EFBRQDaswk6goqDg
p22
(dp23
g3
I224
ssVApWNDrDgb1Os9_tIoi2C9Q
p24
(dp25
g3
I206
ssV4OnussgeseojRRimclMnSA
p26
(dp27
g3
I115
ssVFBE0gDdN4fZH-6uo-mWgPQ
p28
(dp29
g3
I93
ssVSjYyh0D9DfBTaMEPYcAPdw
p30
(dp31
g3
I233
ssVNj4hLqsNh0vpIt0-HwakHA
p32
(dp33
g3
I216
ssVKntKztuTHOnSh4Oq4C1NcQ
p34
(dp35
g3
I47
ssV7eTIkF2n4-lBvArxjV480Q
p36
(dp37
g3
I61
ssV3-vjuwS6bEurZONd5xeo1g
p38
(dp39
g3
I124
ssV9QSI33wlJGBQByolpsNOqA
p40
(dp41
g3
I86
ssVdZavkc1IEyYxbniRArjbYw
p42
(dp43
g3
I96
ssV7IWNzfnDVs16lcQaoOk4lg
p44
(dp45
g3
I199
ssVVVsuCYRKmQ34t5_WSyaR5A
p46
(dp47
g3
I98
ssVQ-kw41pmxwNCBQ63Y-FIpA
p48
(dp49
g3
I122
ssVX0VDOicOaSMTLYRfyrLdpQ
p50
(dp51
g3
I78
ssVc8brOoAF-73h_O_3CnVmag
p52
(dp53
g3
I82
ssV5AwX3A1D-PJkkrWuRpmpCA
p54
(dp55
g3
I4
ssVXWzF4wam-7OJEgoPO_jHiQ
p56
(dp57
g3
I112
ssVyJm4kh4wrdc-a7KuErfqxQ
p58
(dp59
g3
I184
ssVPSeJKgfNRUSh6GuVnr1E1A
p60
(dp61
g3
I146
ssVVgo3sCbziYzH_Ox6IJKMaw
p62
(dp63
g3
I204
ssVJNAzYLB6OvCZLYlIPDo03g
p64
(dp65
g3
I129
ssVekVcadzsYQcUzaVmUgioZQ
p66
(dp67
g3
I128
ssVpCQz3sc_7rI-be4-Ek6SRg
p68
(dp69
g3
I118
ssV3Z2c8dL_nRXc7dd5_sFsPw
p70
(dp71
g3
I198
ssV_mDN0Q9ZaLfG40G7j7WCIw
p72
(dp73
g3
I45
ssVfOnuCvEPM1sfkWBNI4ne3A
p74
(dp75
g3
I173
ssVNWdJ_Q57WZM8XGxFJEjnmg
p76
(dp77
g3
I66
ssVSTRH5HCQ9lkCMNy5R7pq9Q
p78
(dp79
g3
I207
ssV7gb62_8We3I5zVLAWxkgMg
p80
(dp81
g3
I139
ssVa0pG_Dl4sKb3yNps7I_hMQ
p82
(dp83
g3
I169
ssVgh6RTHCVYYLYD1_ruc9mLQ
p84
(dp85
g3
I65
ssVXZR18aCHdKbZRkrWtBIsUw
p86
(dp87
g3
I200
ssVd3rsz09litqwVDGC6egItg
p88
(dp89
g3
I27
ssV5j7qmDZTAetaH0yXFnAFyw
p90
(dp91
g3
I189
ssVZNuAQq-84KCxlmPWkugoBQ
p92
(dp93
g3
I167
ssVoj1OfUVWkLKnONMGLsqTSA
p94
(dp95
g3
I85
ssVgW3DYv-sOMtVMefnlUJcyA
p96
(dp97
g3
I51
ssVAiAUF1pkXWF-o6US7wV23w
p98
(dp99
g3
I203
ssVa8SprmfnrFmIfDuhC3BfDA
p100
(dp101
g3
I175
ssV-KCR0e2Nyc7a7qvqnr9njQ
p102
(dp103
g3
I117
ssVgI9xDj8hiKdRN6qDy6O_ug
p104
(dp105
g3
I29
ssVZ1kxY2ylzi2X8uDl8OIHAQ
p106
(dp107
g3
I35
ssVg1hPSh0rTKcBpICKMOpt-g
p108
(dp109
g3
I19
ssVcCNucgcprU1pEr_TH5qfaw
p110
(dp111
g3
I159
ssVTganG8st3IE9uEmo-aGb6Q
p112
(dp113
g3
I188
ssVJpytS7FOJQ1UkrVtcVJ0rg
p114
(dp115
g3
I59
ssV39Dq_Wx0sbudqrJXT-a73Q
p116
(dp117
g3
I40
ssVNXewRPjoqPjFSYOjwYNTZQ
p118
(dp119
g3
I195
ssV4hIgSKVFrstym0E2SEzL-g
p120
(dp121
g3
I32
ssVJ5oUCKzslgQDg6ByXveDCA
p122
(dp123
g3
I143
ssVZoU0sTLTa4wVVndrInbmTg
p124
(dp125
g3
I50
ssVhy_C0U75FpVaPVkkEflPXg
p126
(dp127
g3
I156
ssVMhtL6Nr2GRKVkgqXm380Kg
p128
(dp129
g3
I49
ssVmpm2NngNAJkl5srF5A3oQA
p130
(dp131
g3
I56
ssVqgnequH3yIsYVJAjlazTGg
p132
(dp133
g3
I196
ssV6NXn9bd7TEbmiS7e8yf5Zw
p134
(dp135
g3
I84
ssVAC84oF7Ciuw7M52RszgWUA
p136
(dp137
g3
I100
ssVZubK3U5PlTWy4VIQG_Wpzg
p138
(dp139
g3
I28
ssVoOayyTrVO-PbVeXXsh_JEQ
p140
(dp141
g3
I182
ssVpZZoNEg9DhlQCpbwUm9NQw
p142
(dp143
g3
I43
ssV_lvBXBxpW0AFO3TQ4_yPzA
p144
(dp145
g3
I39
ssVtiLDO-1uzUJBlF37wA47Hw
p146
(dp147
g3
I13
ssVwWL2nVu_f9bEjuq-PvOxOg
p148
(dp149
g3
I60
ssVgb6zSqA3OfETc1bgazDLwg
p150
(dp151
g3
I152
ssVP13sK8D1mr4DnM9Fnm4nTA
p152
(dp153
g3
I151
ssVT3yR0xYaj_eibS385G_R-w
p154
(dp155
g3
I104
ssVkqbAR7hVxbENHTNJIkGH2Q
p156
(dp157
g3
I138
ssVhNlHSw7g_ujCaVO3zBOr4g
p158
(dp159
g3
I34
ssViPDBT_k_9NL_b34hpjy-gg
p160
(dp161
g3
I111
ssVvktGo1HGeFVoIvZ1K34a_Q
p162
(dp163
g3
I176
ssVLda1_6Rkfe4P1J7XibaY4A
p164
(dp165
g3
I140
ssVskiZJN5OJTyyqP2oRVNhoQ
p166
(dp167
g3
I80
ssV-pZBAoPnG5DW32qOzbJxfA
p168
(dp169
g3
I201
ssV_qDCRA8PTafuoXc0VWyBlw
p170
(dp171
g3
I14
ssV4VaskLw9ByZSJhRnC4mwJg
p172
(dp173
g3
I178
ssVnOA4lSY3D4xsUXJBT4H0pw
p174
(dp175
g3
I73
ssV9xjnMhMpTiJXj4nig4NNUg
p176
(dp177
g3
I53
ssVMtgH4ksVOPSF2pAq3Fw2gw
p178
(dp179
g3
I37
ssV1G7v15k03lh2Y6f2O1YKsg
p180
(dp181
g3
I46
ssVX73FFjzveWTOSJR2RfTh9A
p182
(dp183
g3
I48
ssVWn47EMhtvJQZTsfvvcnkJg
p184
(dp185
g3
I68
ssVOyBfnv5-vUh5jboec6A2xQ
p186
(dp187
g3
I57
ssVB-4_1ATtqCuFlKk1c24b2w
p188
(dp189
g3
I74
ssVU10F_bEuL7J3SUTtO_3XHQ
p190
(dp191
g3
I109
ssVf01B5tRtqf3k6ak1pPSAWw
p192
(dp193
g3
I44
ssVHW-cL93tvU7qng1sZueKWw
p194
(dp195
g3
I211
ssVQZWo-viRnL9EmsIAN6vHtg
p196
(dp197
g3
I7
ssVH8I48jAArQj5IYYBFPDwIQ
p198
(dp199
g3
I133
ssV-J06hZ3w7N2oV5QwaAjtwg
p200
(dp201
g3
I55
ss.