(dp0
VyYeA34N81C78hQe1ff2Iqw
p1
(dp2
S'node_id'
p3
I887
ssVPBflDQXCvssaayD9ZZePLQ
p4
(dp5
g3
I1228
ssVa6XICd9uj5dXPfdssHa3TQ
p6
(dp7
g3
I2007
ssViZZDkhCpuXiRGD7wEDQBIQ
p8
(dp9
g3
I714
ssV7FuLnS_-b79GG-33mwLaMg
p10
(dp11
g3
I1097
ssVOXMRrwRs1fEqqKezz__nMw
p12
(dp13
g3
I797
ssVKH-KeYKyD930J9-FfSJqOg
p14
(dp15
g3
I177
ssVHuWwL7VZL9xUWLbESFXyPg
p16
(dp17
g3
I1491
ssVG-Jl2Kk_J9qSS9eZc0jWxA
p18
(dp19
g3
I1399
ssVTa7v63cLOmH59UdGmzGDoQ
p20
(dp21
g3
I2223
ssVAe_rbQ293MYrKaywJT6Oeg
p22
(dp23
g3
I1296
ssVU040XsrqbEV27c-SIUhObQ
p24
(dp25
g3
I1459
ssVc2lGK5pROxsQthZtcKgksQ
p26
(dp27
g3
I1234
ssV_7el1cOgnfkNfmZKi277bQ
p28
(dp29
g3
I913
ssVtMCG_au_bnN__73ORSuyDA
p30
(dp31
g3
I1189
ssVvjU0uDNyPTUVVF7RX_yaRA
p32
(dp33
g3
I2290
ssVA0O7UHxcCJJXIYJDBGT_hQ
p34
(dp35
g3
I368
ssVhU93q0Q1IILmFbEGGy4xdQ
p36
(dp37
g3
I658
ssVp9GGjP59wRjC6m-RTMG2Hg
p38
(dp39
g3
I1950
ssV_K1aVgm4jTLWAYBPtE9QUw
p40
(dp41
g3
I1671
ssVZXZere7_WFGPkAhAaDqsmQ
p42
(dp43
g3
I738
ssVXbR2Fx-waSWhLNPE5TK8Dg
p44
(dp45
g3
I597
ssVdUXGIdry_VOVcaAHLfDOPQ
p46
(dp47
g3
I1035
ssVvpu0Srt1IeHJfDV0-oWAWw
p48
(dp49
g3
I2153
ssVQz5_5QaUlgXQxaZy8770PQ
p50
(dp51
g3
I1581
ssVXkDiyDjqWNmk_5dwIiRQ8g
p52
(dp53
g3
I269
ssVhAxvi2xMG5gAC9LZOePBQA
p54
(dp55
g3
I1600
ssVjIHaXo4-KR9kvh2J7eMkIA
p56
(dp57
g3
I1731
ssV2oIj1vay-WzzGW-8-Dvd6A
p58
(dp59
g3
I1390
ssVJBsvkmWWbNF9xDlf1SE2dg
p60
(dp61
g3
I1425
ssVpZZoNEg9DhlQCpbwUm9NQw
p62
(dp63
g3
I43
ssVEqRfYUY7RmFpQqrCEg7bpQ
p64
(dp65
g3
I2225
ssV9JcWUImFT29_QrBO8mlcdA
p66
(dp67
g3
I849
ssVsEoIoSCwvjQeegwvu7D-BA
p68
(dp69
g3
I1451
ssVQ6uL5MqR9u5aqJuWChoyTw
p70
(dp71
g3
I681
ssVtR_395VZaCpbS9pg2fwyPg
p72
(dp73
g3
I765
ssVvwndetc7KXo8Ld_muTbGUw
p74
(dp75
g3
I446
ssV1Q4mCt38rIbe6q73bOx_BA
p76
(dp77
g3
I2101
ssVMx5Bl-VEpDcj2fRTGAJkQQ
p78
(dp79
g3
I917
ssVO_yh4s4UMIQpgOr9cbOOuA
p80
(dp81
g3
I1423
ssVeaYqU5Jky2gJyV93mo6CZw
p82
(dp83
g3
I2265
ssVqleJ8kJmGvjNmK9hqaWizw
p84
(dp85
g3
I1210
ssV42su7lD8TYo8CRuRebIn0Q
p86
(dp87
g3
I958
ssVhA41xCI2_76DEcSOQQ7f5A
p88
(dp89
g3
I664
ssV2XJdKllI06zG_KtZ-BVxUg
p90
(dp91
g3
I267
ssVxwzp2zmvdM4c2uK3pvL8bA
p92
(dp93
g3
I773
ssVz8lGpP-V4H1X3hmoVTo46Q
p94
(dp95
g3
I1026
ssV8KCUDaMhHkv5ixutvpBlZw
p96
(dp97
g3
I1986
ssV7gb62_8We3I5zVLAWxkgMg
p98
(dp99
g3
I139
ssVr_Ts9rgBJcJNTzOzHACvUA
p100
(dp101
g3
I780
ssVdY1DjSfdl_2EOhBH0Jc-FQ
p102
(dp103
g3
I1148
ssVs0Pa4r5t40Rko_IuNid7YA
p104
(dp105
g3
I1380
ssVRq9lyWr4hl5odX5yRoHdow
p106
(dp107
g3
I861
ssVl0fB7q-MhLS4wxwj7v-eAw
p108
(dp109
g3
I858
ssVVVsuCYRKmQ34t5_WSyaR5A
p110
(dp111
g3
I98
ssVHcxWWLD3ejPWVAMBzuCoig
p112
(dp113
g3
I1655
ssV7tA04v45dzG8tADZGLrCzA
p114
(dp115
g3
I728
ssVPDFku3Ozng656CxAWH1kVQ
p116
(dp117
g3
I1415
ssVWptd5AawmoAqsd9M5oMBFg
p118
(dp119
g3
I1608
ssVvLi60zqzc675Q5c24ooOUw
p120
(dp121
g3
I1660
ssVSp3-I-pYOVYUdTqWmyNrcA
p122
(dp123
g3
I1946
ssV9bP3urjM__IP5csFh9ZsuQ
p124
(dp125
g3
I1989
ssVu11icoOGFVk0am2zZOa63w
p126
(dp127
g3
I391
ssVXWzF4wam-7OJEgoPO_jHiQ
p128
(dp129
g3
I112
ssVyJm4kh4wrdc-a7KuErfqxQ
p130
(dp131
g3
I184
ssVzmeoU9S-HCJ9b82IUVu1rg
p132
(dp133
g3
I2166
ssVVgo3sCbziYzH_Ox6IJKMaw
p134
(dp135
g3
I204
ssVuuXWtH-XlfjXWv0MkH8USg
p136
(dp137
g3
I2038
ssVYLbPETSOtVY9PFuVu_wsKw
p138
(dp139
g3
I1675
ssVwFvREZM0bO6VhgwVPIciew
p140
(dp141
g3
I893
ssVEH07V44wwSLXWZRkZ66zyg
p142
(dp143
g3
I2172
ssVJ1zIo58TxXiJ5t-N2HHsJA
p144
(dp145
g3
I2103
ssVXwBwRIFEaWjT25bQew911Q
p146
(dp147
g3
I319
ssVpCQz3sc_7rI-be4-Ek6SRg
p148
(dp149
g3
I118
ssVjnzIYOPghtW22HYvWoVtuQ
p150
(dp151
g3
I1110
ssVpspm-OOaEXzwzisLc6G8Ug
p152
(dp153
g3
I950
ssV_gt7JDYvA-bPiIO4uLdS7Q
p154
(dp155
g3
I1934
ssVJcaRTb-8fMgdFv9t-jN8Yg
p156
(dp157
g3
I573
ssVwm0ZnKtPVEdRu0VqR3akzQ
p158
(dp159
g3
I652
ssVDirJsdKrWB82R3FnLDuaKg
p160
(dp161
g3
I342
ssVyF9su8PqjDJe_ceBcop9BA
p162
(dp163
g3
I380
ssV6NGDR8p6nXo74IUGqkXsqg
p164
(dp165
g3
I428
ssV6Bv9yE1q3dIkBdw72ZQr8w
p166
(dp167
g3
I1954
ssVUxRuW9FIrn65POpRsV-eLg
p168
(dp169
g3
I300
ssVBMO1gWhuqtkkmH_X1sNxpg
p170
(dp171
g3
I911
ssVgh6RTHCVYYLYD1_ruc9mLQ
p172
(dp173
g3
I65
ssVE2A3irR6Mujg4EO4Rcdavw
p174
(dp175
g3
I901
ssVsQAjHANPfjOvVBQcRsxYNA
p176
(dp177
g3
I1768
ssVjvv2mNQmtHBuS12RGMhw3g
p178
(dp179
g3
I1776
ssV4zCOYwQ7m737sdwYi_NXsA
p180
(dp181
g3
I1337
ssVdcc7mTHDv0lwej1VqW4sPg
p182
(dp183
g3
I2189
ssVATlqgcQwb3XzvDnq3Lv-0A
p184
(dp185
g3
I1416
ssV4GdN3itvzmFc_6kib2UzlA
p186
(dp187
g3
I1765
ssVwN6sKWryjjcDRBplyoFsGA
p188
(dp189
g3
I1566
ssVH3Ubx9gZekkkNDSb98pNZg
p190
(dp191
g3
I495
ssVQingGIjdfsPFHSuSgE1Ifg
p192
(dp193
g3
I1876
ssVx54M9_rkBtJasR81pGc__g
p194
(dp195
g3
I351
ssV4PxoMDVm7-wG6GVdZDIACA
p196
(dp197
g3
I1334
ssVF1N-v20NsVucjkFCy4jOLw
p198
(dp199
g3
I1694
ssV-FgfPEXHgONNx8QxKWLTxA
p200
(dp201
g3
I1242
ssV6ZAJ4rds-Jk63uvlGN3D9A
p202
(dp203
g3
I1217
ssViqkEsT_nRFGZGKxpEevDcg
p204
(dp205
g3
I2144
ssVREfQIccdKSVnEPr3Bnucwg
p206
(dp207
g3
I1420
ssVZNuAQq-84KCxlmPWkugoBQ
p208
(dp209
g3
I167
ssVnc3cqVN0UuB3m50-CcMftw
p210
(dp211
g3
I1562
ssVlhU7JDcZCreoEESNC5KTKw
p212
(dp213
g3
I514
ssV95IEsFmxF1QsxehdioSYzg
p214
(dp215
g3
I763
ssVFTdERuaPutEd5QEJ0W61jw
p216
(dp217
g3
I1457
ssVVoxA7HEJUEMwU6CRh0mFtA
p218
(dp219
g3
I2013
ssVZ1kxY2ylzi2X8uDl8OIHAQ
p220
(dp221
g3
I35
ssVbieJ0AblSMhhqpa5GriXpg
p222
(dp223
g3
I1259
ssV8DBCh1ykGdM71X25KNXiZg
p224
(dp225
g3
I1869
ssVdH9FRHSZwlhLLamaZSFdGQ
p226
(dp227
g3
I2134
ssVJxr4HUyWEuz8qpB1dWUcEQ
p228
(dp229
g3
I2133
ssVvttHEN3o5UKLOOoEX8NmEQ
p230
(dp231
g3
I1468
ssVRUpw3yekf5u4jsErFqXwCw
p232
(dp233
g3
I694
ssVVw1Kt0smSXu0mkSRHzTC_A
p234
(dp235
g3
I1631
ssVjRs5yOnQ3LonN2_4RxX1yw
p236
(dp237
g3
I1785
ssVXdJCpK1RzKJxoc5Tmjc_7g
p238
(dp239
g3
I990
ssVouSW12lHbDgYEfszZxE4Fw
p240
(dp241
g3
I2132
ssV09ZCt5inrt35zuJVtxBB5A
p242
(dp243
g3
I826
ssVM5SKsJfcBSIFAJgqwYG3sg
p244
(dp245
g3
I1107
ssVoJd9zyKv4DynZm1_5Sl1NA
p246
(dp247
g3
I1012
ssV7ovr23oa6bAsN3EL55zvxw
p248
(dp249
g3
I1443
ssVVKpaDKZPnbQIN-u18uHJvA
p250
(dp251
g3
I971
ssVQlVi4pRuYTOoLMKWS0DvEg
p252
(dp253
g3
I815
ssVvWZsmtNF2O5W_hcBRFK3lg
p254
(dp255
g3
I1541
ssVnHN5HEl6NJp3vpS8Hut6ZA
p256
(dp257
g3
I2016
ssVM5Jq7zls36o4rnMemOLyWg
p258
(dp259
g3
I1735
ssVoj1OfUVWkLKnONMGLsqTSA
p260
(dp261
g3
I85
ssVehtcnF3Ebvq23p107LcsuA
p262
(dp263
g3
I1045
ssVxwUvyZ_nwfnVv4P7N3eDiQ
p264
(dp265
g3
I2068
ssV0aWsFX3XeZE7C9ZUQ6xgZg
p266
(dp267
g3
I2066
ssV6STpZ4eL0rzkTdz5v-ZnUA
p268
(dp269
g3
I447
ssV9q0cPlHAM_3l6s1kle73xQ
p270
(dp271
g3
I1467
ssVruRbhtptqV1ygJS6xVnvNQ
p272
(dp273
g3
I2040
ssVSXAaQxq374YDFD5-6lnaeg
p274
(dp275
g3
I1286
ssVMhtL6Nr2GRKVkgqXm380Kg
p276
(dp277
g3
I49
ssV-WtEyxSW7rt19jF5mHN6Sg
p278
(dp279
g3
I966
ssVz0g2DigbybdN-vL628TG3Q
p280
(dp281
g3
I955
ssVmpm2NngNAJkl5srF5A3oQA
p282
(dp283
g3
I56
ssVZzebKyNzIQrgGFPwF6lL3g
p284
(dp285
g3
I676
ssV6NXn9bd7TEbmiS7e8yf5Zw
p286
(dp287
g3
I84
ssVc04dZ5_tRAKy-eNsKVy_cQ
p288
(dp289
g3
I1037
ssV5CttQfnbWHYaHH9ivMNBXw
p290
(dp291
g3
I386
ssVrF7PJO_wur7GMr7rIR7ntw
p292
(dp293
g3
I1160
ssVwzYh_-fushaPL8eccbr1Kg
p294
(dp295
g3
I1549
ssVOyp1qPyKoeP_YxuZV0DpBg
p296
(dp297
g3
I1338
ssV4MPooE56H7rZV4O9la7eXA
p298
(dp299
g3
I303
ssVSbM_nNm7KyjEDiBPReGJxw
p300
(dp301
g3
I361
ssVxOAML_TDUVst53xBynhbkQ
p302
(dp303
g3
I1471
ssVeCR75-o88bv7nSOm9GT8rg
p304
(dp305
g3
I1013
ssV4lY1GVHD9v7u5Us0CGpx4w
p306
(dp307
g3
I767
ssVUCOssThZufcqehMMe6OA0g
p308
(dp309
g3
I1469
ssVavTf2XsWIqFae6HQ2LVPaA
p310
(dp311
g3
I759
ssVbrQACdt3AUxRkGLeJREYyA
p312
(dp313
g3
I725
ssVBl1kEa6M3UZmp4koRZ0LJg
p314
(dp315
g3
I1586
ssVWZwfmfP5X1gDDeL-M9vzZA
p316
(dp317
g3
I2218
ssVOR5a1mXpxkgQjP6foOqiGg
p318
(dp319
g3
I822
ssVLns6GeibpQcce73LgfgnEQ
p320
(dp321
g3
I2006
ssVzp5IV693DHV0UTJz2NUQAg
p322
(dp323
g3
I875
ssVZk9Bbu49hfKtVi_CWXD4mw
p324
(dp325
g3
I1681
ssV0H9ne5frm1GjO6TjUwbxlw
p326
(dp327
g3
I1164
ssVBA0RTaT7_W1Xs_orzBpZ1A
p328
(dp329
g3
I1629
ssVrQoW4UsmxkHq_HuXr0D5gw
p330
(dp331
g3
I513
ssVLGXZiivoBbjNrYocw8rk4w
p332
(dp333
g3
I1967
ssV-yB4bueheJq9dqdrBWpejg
p334
(dp335
g3
I1153
ssVAxJ62Wj3JNu20qB0rRRNIw
p336
(dp337
g3
I1730
ssV8A9MRd0KBZ1iMDRRyNQ8TQ
p338
(dp339
g3
I1498
ssVCU1QEnI5Jy2JcEKmHxlAHw
p340
(dp341
g3
I964
ssVKiToF2jrMwunrwZbZPWWUQ
p342
(dp343
g3
I2219
ssVLxHWAHPa-tjIzImN7fy86A
p344
(dp345
g3
I442
ssV9ep1mMlJYce8zY8Df_UFuA
p346
(dp347
g3
I1168
ssVHh8wKjQK1rqgoIjHgO9Nfw
p348
(dp349
g3
I2227
ssVDzuMtUboZf90GMx412eyCw
p350
(dp351
g3
I2147
ssVsLmPgXbT5hnNrj1f4lsedw
p352
(dp353
g3
I1069
ssVg_L3j7HsQ0WPH12qYLDI9Q
p354
(dp355
g3
I1431
ssVKC6WJm_I-9tvNL2wY9Q3QA
p356
(dp357
g3
I249
ssVhNlHSw7g_ujCaVO3zBOr4g
p358
(dp359
g3
I34
ssVweoLy-BwdpPs6XysNX96wg
p360
(dp361
g3
I1583
ssV-GUY5oTtKJf39CJjhrjGyA
p362
(dp363
g3
I782
ssVtiL3Kv0UqT9QXqerMKURrA
p364
(dp365
g3
I2292
ssVexefpuK6O1ctUUqTxq5XLg
p366
(dp367
g3
I2211
ssVdF1xf0lGiZ2yeHzTZxcw3Q
p368
(dp369
g3
I1515
ssVXdhfTOCIUkfIua4icmQ8OA
p370
(dp371
g3
I2277
ssV8h3wUMOg0DWJlUvKMdc7UQ
p372
(dp373
g3
I1030
ssVHnqzojvN3AyZHjslUlxiJQ
p374
(dp375
g3
I1663
ssVBq4o8L-bmu58H42WM3iCqw
p376
(dp377
g3
I1674
ssVPsMnEF1rBjRe9InrvUzhWw
p378
(dp379
g3
I836
ssVWpa3MaraN9XKgKM0_TS0Bw
p380
(dp381
g3
I1889
ssVoV_KwsciGrw09NLuh56xlw
p382
(dp383
g3
I1716
ssV3nYMivR3vQ5Z0H_K4XGMrA
p384
(dp385
g3
I1051
ssVRFo1ZzWJ2yUxAdL1dUl9uQ
p386
(dp387
g3
I264
ssVtwRSE14KREWCGT73phSKrw
p388
(dp389
g3
I2214
ssVkzjG-s3oiYKvyY_DamMp7w
p390
(dp391
g3
I640
ssVplXs2jC0sEgJkEWNMc5rEQ
p392
(dp393
g3
I2140
ssVvktGo1HGeFVoIvZ1K34a_Q
p394
(dp395
g3
I176
ssVGImAFVzC2EQ55mwMixa6JQ
p396
(dp397
g3
I261
ssVskiZJN5OJTyyqP2oRVNhoQ
p398
(dp399
g3
I80
ssVWyxBVw4OinBwJVi3uNan3Q
p400
(dp401
g3
I1473
ssV-BhjP7Ll-zEtXvJJQ1ZKvA
p402
(dp403
g3
I1782
ssVfA1-M_FoudCU9xxpauJBaw
p404
(dp405
g3
I1432
ssV3uRD9SFPs2jzxVmRMyQ0qg
p406
(dp407
g3
I2004
ssV9QSI33wlJGBQByolpsNOqA
p408
(dp409
g3
I86
ssVoMGWeM12E8vy3ytmflf9bA
p410
(dp411
g3
I1962
ssV6eg5C4DoEGtZMNk5jGGArw
p412
(dp413
g3
I1258
ssVDGJFuqAxVJkyF0_BhpfKfg
p414
(dp415
g3
I1582
ssVGWvK-zh8JtHogDVa3-_nqQ
p416
(dp417
g3
I1186
ssVOgKUl4CqYlEx7jopdw_MCA
p418
(dp419
g3
I611
ssVJBdmQfLAxutV77XshUEUgA
p420
(dp421
g3
I2094
ssVwJF6CWx_9n9elpzrBh6o6Q
p422
(dp423
g3
I1528
ssVgJSxh2i87r1fqU7zciXNCA
p424
(dp425
g3
I1788
ssVJCpQDETmyGtQ_PJbSnc47w
p426
(dp427
g3
I953
ssVRk0WIADF3zoq2a-F-_FFwg
p428
(dp429
g3
I1114
ssV9xjnMhMpTiJXj4nig4NNUg
p430
(dp431
g3
I53
ssVYSHl2ZIxBrVq8NpN_JqAYA
p432
(dp433
g3
I1879
ssVMtgH4ksVOPSF2pAq3Fw2gw
p434
(dp435
g3
I37
ssVOAuLVisM05YF1mx0vkwWjw
p436
(dp437
g3
I1180
ssVqzTl_FO8ogp5Aik8gML6Eg
p438
(dp439
g3
I1790
ssVX73FFjzveWTOSJR2RfTh9A
p440
(dp441
g3
I48
ssVEPm0AATpor5tobMO6W9CHg
p442
(dp443
g3
I749
ssVt5VlRz0BRbaZMzODp-56pQ
p444
(dp445
g3
I1176
ssVRotG1z1ZxA--cfeR2EloVw
p446
(dp447
g3
I1811
ssVN3x4KnU_nqprybjzGYD2vA
p448
(dp449
g3
I1512
ssV-0paANjzZPt0VAH_1BubDA
p450
(dp451
g3
I908
ssVrdH3V72a1AGiItYr6eB75A
p452
(dp453
g3
I1383
ssVdCxPgWSRL7Ds4WVLaDPCHA
p454
(dp455
g3
I1511
ssV_ju0P_eGbCYI43Pj3BTckQ
p456
(dp457
g3
I1588
ssVkmnJzfMjpgY7ySy0kqSKTg
p458
(dp459
g3
I1771
ssVcJ_PncYilrsO1ZeKK_u33g
p460
(dp461
g3
I1281
ssV9ExqqAOtRIvAsOBdKuAqCA
p462
(dp463
g3
I410
ssVllkm_iXQszkN5DZvmqjNqA
p464
(dp465
g3
I1545
ssV4mCfNFI8GsJbYcEq_TskUQ
p466
(dp467
g3
I436
ssVzjLRw33xDZI2__oZyROUPg
p468
(dp469
g3
I2181
ssVHa6LLZLEZO4cDY-pooZr-w
p470
(dp471
g3
I1957
ssVQZWo-viRnL9EmsIAN6vHtg
p472
(dp473
g3
I7
ssV8D408fDn0twwIW6FZ42YWg
p474
(dp475
g3
I265
ssVpuGzwne0ytT_m0N7SLvRYA
p476
(dp477
g3
I701
ssV-J06hZ3w7N2oV5QwaAjtwg
p478
(dp479
g3
I55
ssVizrPGEutYNurRfodgsIxAw
p480
(dp481
g3
I487
ssVzKVrFcAqiR2faJXL0BOl2g
p482
(dp483
g3
I255
ssVbvYk98zUE61KoWifshskpw
p484
(dp485
g3
I1733
ssVUzsKmJRX6x8E1PX6ClSw1Q
p486
(dp487
g3
I922
ssVmkeB9GegQr8iObj_UZzhQg
p488
(dp489
g3
I1476
ssV9m-ATHqaOQaKGQzNe3ViOA
p490
(dp491
g3
I431
ssVegt5RTaErcWCEVGdpwMrkw
p492
(dp493
g3
I543
ssVYKBoIgFeiOzqaRN6cR23Kg
p494
(dp495
g3
I863
ssV7eTIkF2n4-lBvArxjV480Q
p496
(dp497
g3
I61
ssVK1FPJ9ut5GboejaPBlz3aw
p498
(dp499
g3
I2005
ssVds-mCfYTiYMj8nbofaPv0g
p500
(dp501
g3
I1404
ssVa8ybHTd5NccDDYoH3nBARQ
p502
(dp503
g3
I939
ssVyGdpFeEIbylTDr0AOsAO3A
p504
(dp505
g3
I579
ssV5pPL2bzv6ES_jT2uY4LI2A
p506
(dp507
g3
I778
ssVLArAW4ay8mUA6xFN7ZlUNA
p508
(dp509
g3
I594
ssVrxyjNc9M4_kAPesywk8V7A
p510
(dp511
g3
I744
ssVBKP8vEwsgghGysDXCYNykg
p512
(dp513
g3
I320
ssVnwGOEh_lcl9ChYQSGAnWdQ
p514
(dp515
g3
I683
ssVb35fzV7F43qt5Q1PY_R_Nw
p516
(dp517
g3
I125
ssVO9YieWCcsHOLBWwv5w5iNA
p518
(dp519
g3
I569
ssV2DKJRZg5tr62qRzTvYN71A
p520
(dp521
g3
I585
ssVWiYbxN-JFksnFlv4kLhHOg
p522
(dp523
g3
I1291
ssVmbgppRfYH0kC7p7X2VPcGg
p524
(dp525
g3
I346
ssVJ6IOwRvM6UYtJIxKR1KW7w
p526
(dp527
g3
I1175
ssVXJAKSnJOn2NE8ekSh3uJTg
p528
(dp529
g3
I2053
ssVHguQ0Lxxwpx1CWBloDzRIA
p530
(dp531
g3
I422
ssVmQA27gfqjLLXyzUo3zjiYg
p532
(dp533
g3
I1595
ssVllS7rv2r-_YZlfK4_sivVw
p534
(dp535
g3
I1247
ssVSSi6dc67qGmqV_4P7QnIQQ
p536
(dp537
g3
I1614
ssVhORy0O17fXiPM5g_ouY3-A
p538
(dp539
g3
I1615
ssVASenO-NcZyEoJJw_aO7C7A
p540
(dp541
g3
I1616
ssVsEbZbbyhJL7Pv4z23LpGsg
p542
(dp543
g3
I486
ssVrTWtHcX68CjWxJszyHjPhg
p544
(dp545
g3
I501
ssV5S3qIi-EHG634Mx-_mpBQg
p546
(dp547
g3
I75
ssVVk-hJ1i5ZagPM87Kv9FOnA
p548
(dp549
g3
I2203
ssVKeXHDiRfSY6PPDoOSaSFsQ
p550
(dp551
g3
I560
ssVuFOYBSZV2DZhNNPEePWbUQ
p552
(dp553
g3
I374
ssV_qQJEA45k_E6EGE7vuzUDA
p554
(dp555
g3
I1826
ssVvDIs0RJ3r7OS9bOAxeylFw
p556
(dp557
g3
I522
ssVdy65J4MjecYKCnXfR3Ct8Q
p558
(dp559
g3
I2087
ssVvbXlEr9FyUdtdCb1iDCdmA
p560
(dp561
g3
I657
ssVXM4eixpB3VzbWAMSN6jRQQ
p562
(dp563
g3
I354
ssV0wfbXo0JF9pmaDlKpIOFdw
p564
(dp565
g3
I813
ssVMc25_FATV3pNrELPIL5GOw
p566
(dp567
g3
I697
ssV4OnussgeseojRRimclMnSA
p568
(dp569
g3
I115
ssVNhVYnj6s2uFwrrDmu7Jyew
p570
(dp571
g3
I940
ssV27-_MzkTnyottLHf5FMCeA
p572
(dp573
g3
I1321
ssVACATV_l5ZxtGWjXuxaRjzw
p574
(dp575
g3
I921
ssVUjElHRjwqj3-QLgy0z48fg
p576
(dp577
g3
I1976
ssVSjYyh0D9DfBTaMEPYcAPdw
p578
(dp579
g3
I233
ssVY6Y-Is1t48LP9QMKi5MyWA
p580
(dp581
g3
I420
ssVXAK1cIQ4ANQtL2QPnukNDw
p582
(dp583
g3
I1093
ssVNj4hLqsNh0vpIt0-HwakHA
p584
(dp585
g3
I216
ssVU10F_bEuL7J3SUTtO_3XHQ
p586
(dp587
g3
I109
ssV7o8ftQox8Usmik734CwGcQ
p588
(dp589
g3
I1330
ssVuZyzPG8Gkjwld9fHpPBd1g
p590
(dp591
g3
I459
ssV3-vjuwS6bEurZONd5xeo1g
p592
(dp593
g3
I124
ssVAFESaSYwWIsXOAuO22KIUQ
p594
(dp595
g3
I754
ssVAtnYGQjNY2cCSNWt_LY8nQ
p596
(dp597
g3
I476
ssVLlGQkuKHKHTZqPp6H9KB9w
p598
(dp599
g3
I1165
ssVw_hDmPuou6xnemXUu-jc3Q
p600
(dp601
g3
I1868
ssVRnqZyKKHsjRbOWc1vrmiCg
p602
(dp603
g3
I1216
ssVOO835Kwyxd446nWS3seqFg
p604
(dp605
g3
I496
ssV4d1W47SAKgPznUnJmRCdKA
p606
(dp607
g3
I896
ssVV_U2zXwNtkG4kVB7sGGZxA
p608
(dp609
g3
I600
ssVZCbSvRpfWbt9WzH0h4B_gQ
p610
(dp611
g3
I2267
ssVBW1I80sYvsSlwArrQ9mroQ
p612
(dp613
g3
I1446
ssVX3NSW-4NkDKYzK7vRKqRQA
p614
(dp615
g3
I312
ssVdZavkc1IEyYxbniRArjbYw
p616
(dp617
g3
I96
ssVKTMqiNYmGBzenePbCVLa-g
p618
(dp619
g3
I379
ssVhKfeV80rP54McmEBQ618yA
p620
(dp621
g3
I1773
ssVdQTnJCu2dgeblsPeuUeEPw
p622
(dp623
g3
I787
ssVcWH2k_nbBmAH8iuQFMjQgA
p624
(dp625
g3
I717
ssVVv89iM91KdciCALtg6hJtw
p626
(dp627
g3
I1692
ssVLc6mKF9YAcb1dmulklfodA
p628
(dp629
g3
I1347
ssVQ-kw41pmxwNCBQ63Y-FIpA
p630
(dp631
g3
I122
ssVmODRlE6YB-qdmJPoJ-WcWA
p632
(dp633
g3
I2221
ssVdOMCK_cem_nD4ZDaKkpODQ
p634
(dp635
g3
I1202
ssV3zP6xCGc5eSeimDfugRYAw
p636
(dp637
g3
I678
ssVNf_-ReLKWQAf-lJS3ujbGg
p638
(dp639
g3
I1227
ssVO0B1CSVV8HQBN2ruLKckdg
p640
(dp641
g3
I1159
ssV6POMlZx1zeGp9nVnuLrTxw
p642
(dp643
g3
I1172
ssVcc-NjTz637u7EtFd83dn_w
p644
(dp645
g3
I2137
ssVbZN1xlzl_fNA7ihgwd9YjA
p646
(dp647
g3
I408
ssVZiSL-0G_x7fclCHAQjra4A
p648
(dp649
g3
I1704
ssV5AwX3A1D-PJkkrWuRpmpCA
p650
(dp651
g3
I4
ssV6ZLjNYVfOfAtkkC-64ADZQ
p652
(dp653
g3
I914
ssVjIs5_aDWfaUFIqeF-Hq1bg
p654
(dp655
g3
I537
ssVIIY-SZiNv3siGKUWzVD_iw
p656
(dp657
g3
I311
ssVjRteemWmPzYuTxFe0L0xJQ
p658
(dp659
g3
I1519
ssVJNAzYLB6OvCZLYlIPDo03g
p660
(dp661
g3
I129
ssVg3Ki_WNI54Eu3Tsnma9iYQ
p662
(dp663
g3
I288
ssVYnUOjXIzNebruPbKhCEIHQ
p664
(dp665
g3
I1571
ssV48-ziCwNYCs2i-ZuPKEvbQ
p666
(dp667
g3
I599
ssVcL_uBkLnBwonErgwQZCfDA
p668
(dp669
g3
I974
ssVPnZA_uqiHmWWpN4lg70Ttw
p670
(dp671
g3
I715
ssVGIh4XB5bbjq1fKSUS6MhsA
p672
(dp673
g3
I1231
ssVIxkFiVHEdk7YKbw5DsNhmA
p674
(dp675
g3
I1466
ssVjtSwakJIjOm19sB2S4WnsQ
p676
(dp677
g3
I1213
ssVhPxAMZfClMKlKJmctsTvgw
p678
(dp679
g3
I2046
ssVgV32nIyvNKZH5YCmMngyTA
p680
(dp681
g3
I1359
ssVDM-l3LuRG9150FO7J2E_vw
p682
(dp683
g3
I2224
ssVdCNgVHnV5rUece7p5L4gPA
p684
(dp685
g3
I1687
ssVpg5mlkpJMpyMTfnY4B3RPA
p686
(dp687
g3
I1818
ssV_mDN0Q9ZaLfG40G7j7WCIw
p688
(dp689
g3
I45
ssV3Bg1eWkNkBJ9858JmVTKbA
p690
(dp691
g3
I1911
ssVxsTlqAQ7TjNFIUl5ihK00g
p692
(dp693
g3
I324
ssVmNb-Mn78KAG0-dG4kLVVaQ
p694
(dp695
g3
I2205
ssVNWdJ_Q57WZM8XGxFJEjnmg
p696
(dp697
g3
I66
ssVC18SezVHW6jl9XMVPaPN-A
p698
(dp699
g3
I1573
ssVOvSUHE3POahr-IsC_VFbbA
p700
(dp701
g3
I999
ssVRqgooNmbwSeAoBSLKTi0XA
p702
(dp703
g3
I1343
ssVIgMhM28GtVdkg7qwM-auLQ
p704
(dp705
g3
I1567
ssV8qe2c5uRlAkvNFvDriBm1Q
p706
(dp707
g3
I2278
ssVgTh8hCjuSZc--mxXvlBbIg
p708
(dp709
g3
I1314
ssVoBwb6ViGFerK2ATjGEOywA
p710
(dp711
g3
I293
ssV_8PFw-krrj97F9r_zCiI2g
p712
(dp713
g3
I1266
ssVjVNpBd3oF5Tch8O74BkEDw
p714
(dp715
g3
I1137
ssVfmIE7XsIenncwgtGTUCWcQ
p716
(dp717
g3
I237
ssVj3jlv2RPjKFh7MoePlPBlg
p718
(dp719
g3
I2054
ssV4vcgh46DS56DHFVWZPvgOg
p720
(dp721
g3
I1609
ssVa0pG_Dl4sKb3yNps7I_hMQ
p722
(dp723
g3
I169
ssVE-lSz9Xy2GdiDiFXW3cLRQ
p724
(dp725
g3
I567
ssVmV6NA9Nh3ZvD95fgRLY0Vw
p726
(dp727
g3
I860
ssVfGoUxyf1CmEvTfXYGeoKtw
p728
(dp729
g3
I1226
ssV2h3L5wnUVQ4ppf3ou_C8OQ
p730
(dp731
g3
I750
ssVmJyAPqxCUg1Juh0ZDbaKdA
p732
(dp733
g3
I1930
ssVVBE0RoBJEG_yvHkRrLkTyg
p734
(dp735
g3
I2100
ssVNUQOO3L4gYdHCvKZaRynGA
p736
(dp737
g3
I1308
ssVOq3jMOJPcKcxde2cAqjxiw
p738
(dp739
g3
I1662
ssVGc2HgeugdfddetscYkNoOg
p740
(dp741
g3
I1103
ssV_PfzyJIqUsn-X6q77ywjEQ
p742
(dp743
g3
I989
ssVZTQwa81YCyhAOCqP5xPmag
p744
(dp745
g3
I876
ssV0q2hbNMUTYjFdGB0Tr6jpA
p746
(dp747
g3
I620
ssVi8kR-Qnn3xd9EnpCWs9POQ
p748
(dp749
g3
I2047
ssVgW3DYv-sOMtVMefnlUJcyA
p750
(dp751
g3
I51
ssVz8-kXWHjt9c3AL-X50MM7A
p752
(dp753
g3
I516
ssVU0qjOmfTeNpUJO3luqMEKw
p754
(dp755
g3
I1504
ssViTAXiNZrlzqlx_7dDsjwQA
p756
(dp757
g3
I1591
ssV34TwcChxsSVJvgNKdo2gFg
p758
(dp759
g3
I2193
ssVo1FQiOv3lm9mqL-jGpCiFw
p760
(dp761
g3
I1919
ssVnbozskmdM5P8bg35atsriw
p762
(dp763
g3
I472
ssV8nD0nJ5d8mxwdEtyURIb4A
p764
(dp765
g3
I1658
ssV-KCR0e2Nyc7a7qvqnr9njQ
p766
(dp767
g3
I117
ssVXDd7Kjg4JHvRhz95mUC1Ag
p768
(dp769
g3
I803
ssVv5Z3H70RqUnGMo2i_bxpWw
p770
(dp771
g3
I1791
ssVGPek49ZSHzG69ed_KbY-Zg
p772
(dp773
g3
I268
ssVTWBLFQsDr_3G7XbCErmL9w
p774
(dp775
g3
I2165
ssVSOrFoT6Ib1w4fH7XTbeT5Q
p776
(dp777
g3
I2288
ssVcCNucgcprU1pEr_TH5qfaw
p778
(dp779
g3
I159
ssV5xSIdC1tdsJPtJnWj3ofRw
p780
(dp781
g3
I1863
ssVxTYSKCMa8Tc5tgq_n9neWg
p782
(dp783
g3
I1880
ssVT7t5UdadpHua-YnmiFpcZw
p784
(dp785
g3
I1598
ssVFKyea9iziM__tR1JghHj_Q
p786
(dp787
g3
I932
ssVpaZP1AjZ_xElpNv81yWFkQ
p788
(dp789
g3
I2043
ssVVP7upB0PNO8OrVTA8jm8qA
p790
(dp791
g3
I251
ssVhC3XkU_GzvypLHfkX6770g
p792
(dp793
g3
I1987
ssVNXewRPjoqPjFSYOjwYNTZQ
p794
(dp795
g3
I195
ssVKydTpdUtq6o-u3JLjZFrDQ
p796
(dp797
g3
I1533
ssV4hIgSKVFrstym0E2SEzL-g
p798
(dp799
g3
I32
ssVwG140zh0vjgsIEdgT_UHPw
p800
(dp801
g3
I393
ssVl4uFFd-MC4ei7JCM8V9qzQ
p802
(dp803
g3
I369
ssVR2y1ZZO2JtzjCKhRpJ3CjA
p804
(dp805
g3
I1454
ssV2TaOmpSCAmKob2YBOhvsIw
p806
(dp807
g3
I321
ssV6KZdYi8bZw4Od4C5VK1Wrg
p808
(dp809
g3
I316
ssVhBLJ0s1dPwX4UJtEl1IQrQ
p810
(dp811
g3
I1793
ssVZoU0sTLTa4wVVndrInbmTg
p812
(dp813
g3
I50
ssV084rLl9fT-q74J9zl-r6lA
p814
(dp815
g3
I737
ssVMofhftznXiuBxID1GNOSYA
p816
(dp817
g3
I1166
ssVTq-Gr5ru4tiwF4IHmIzQYg
p818
(dp819
g3
I687
ssV0ENpugx_ZHN-hZu1NvOQ6Q
p820
(dp821
g3
I297
ssVDY-U7c0451pUs25p_AhUgQ
p822
(dp823
g3
I1284
ssVqgnequH3yIsYVJAjlazTGg
p824
(dp825
g3
I196
ssVPc-6iaUA1hPkTZP2g4G0Hg
p826
(dp827
g3
I424
ssV7FadEKwkRx-SmBr556caRg
p828
(dp829
g3
I1578
ssV6M8u19QuC6Fo3TPvuGLfGQ
p830
(dp831
g3
I400
ssVLsiZwF0uITNsAD-TXEIA6A
p832
(dp833
g3
I2282
ssV3ay0VC64u7Tt9sYkjOb46w
p834
(dp835
g3
I1866
ssV8pkUfVTNhoGYFO9aui7oCg
p836
(dp837
g3
I1835
ssV82tSm6A56DMQgE9mSR91AA
p838
(dp839
g3
I1830
ssVX0s9CYUhVOG9-DUSZrY6rw
p840
(dp841
g3
I1803
ssVfjJ9tgJNhDR_l3_4t5fz2Q
p842
(dp843
g3
I1729
ssVxzlE4JFONjdoNzXvAkE1zQ
p844
(dp845
g3
I734
ssVGJb7PHAY6sejcoB0lfVEkA
p846
(dp847
g3
I1080
ssVpWhMf2F1xuejOSWCrqhUxA
p848
(dp849
g3
I1427
ssVhTVzKzj9uAcmDU0M9TwsrQ
p850
(dp851
g3
I2272
ssV2-GIaS8Bc4MHqzXHLQY9Ew
p852
(dp853
g3
I1219
ssVbSxRMman23jqYU_-aMPOHg
p854
(dp855
g3
I851
ssV2U9fNmNZBtR9JGNKAWeGjQ
p856
(dp857
g3
I903
ssVF6d_GAFAEuvIEW1Zg5KPRw
p858
(dp859
g3
I1886
ssVHZTUSfAZlp2BPdxoDN6i-Q
p860
(dp861
g3
I2263
ssVPMDOLWbppQa28B3Emi-Pgg
p862
(dp863
g3
I1029
ssV2fqi_v6jp8hXoHFGJ5505g
p864
(dp865
g3
I1008
ssVMDVoSLBTqsGsC4jztAs4PQ
p866
(dp867
g3
I1913
ssVtiLDO-1uzUJBlF37wA47Hw
p868
(dp869
g3
I13
ssVJgDkCER12uiv4lbpmkZ9VA
p870
(dp871
g3
I474
ssVdTJohVhrW8UMuHApeo_xtw
p872
(dp873
g3
I2182
ssVb1CqQROFO9veKPZaEl_jDw
p874
(dp875
g3
I1994
ssVUMq89piQvpAVFVfiGc6ndA
p876
(dp877
g3
I770
ssVC3pfqJVsHOdv4t9GArBBxQ
p878
(dp879
g3
I1445
ssVwWL2nVu_f9bEjuq-PvOxOg
p880
(dp881
g3
I60
ssVU-7-ZSsq5znOp_N9U6jGqA
p882
(dp883
g3
I1355
ssVzSQps4R-_w8YkjDtgIsfiw
p884
(dp885
g3
I952
ssVcVrh_fc0YYoGJF_Z4KYIJg
p886
(dp887
g3
I645
ssVeoHRVWFl0sGc5ABljL079w
p888
(dp889
g3
I531
ssVayInxB0UnHZXGSaXOw5TyQ
p890
(dp891
g3
I2057
ssVDRlg0Uif5Ii4ytsKJLmhLg
p892
(dp893
g3
I892
ssVU9PlooHU_1pc0boSxtksXg
p894
(dp895
g3
I1827
ssVcjhSTaDI5XffCXRJsXPmSQ
p896
(dp897
g3
I672
ssVbrRr5SRQyzYa6S623Kvd5Q
p898
(dp899
g3
I571
ssVG-WkmCN8uahUqQK4YxneEg
p900
(dp901
g3
I1381
ssVN0QZjNCBJzZNMUJAECG6Bg
p902
(dp903
g3
I564
ssVLFJ5gpahkBCWvmS6ZFJeKQ
p904
(dp905
g3
I1673
ssVstVEfpZ5HnUtNSXfLB0NrQ
p906
(dp907
g3
I841
ssVRYh0uRAk_l54NHz_34OlrA
p908
(dp909
g3
I458
ssVynW1j1OXP9ztbasZclf4jg
p910
(dp911
g3
I325
ssVTK7yRocuroDWjSk7xH2A4w
p912
(dp913
g3
I1634
ssVu-MDPNWS2RNCJ5a26PwEUA
p914
(dp915
g3
I2044
ssV9m2wQ0vU_nijlh09v4jgNQ
p916
(dp917
g3
I854
ssVM32QoptwyX6FmUsA1sGNkw
p918
(dp919
g3
I605
ssVEVeSej-_h18Riepz6ORHFA
p920
(dp921
g3
I1161
ssVScGRHKYZb79rr1KJi01EZw
p922
(dp923
g3
I1846
ssVtBbdAT5sxbk7LBvmGQjdfA
p924
(dp925
g3
I1717
ssVnPb0-v-aOjoYKLBEZgaF5w
p926
(dp927
g3
I833
ssV7ICVDkyjDLrAdxAZAQyVoA
p928
(dp929
g3
I1896
ssViDHhSKwRwPzhGmI2lOGw2Q
p930
(dp931
g3
I1020
ssVXp2PGQp5gTQwBKWaHMO1ug
p932
(dp933
g3
I235
ssVGqeWMTDbE32Yll17EfrzlA
p934
(dp935
g3
I2183
ssVqBZ-nfHi7T1DbKoHstqIuQ
p936
(dp937
g3
I1535
ssVHErv4zp1mxRf0Bl0z1Un3Q
p938
(dp939
g3
I730
ssVLKP1tvFs4H5DgpPlNqzkCA
p940
(dp941
g3
I1859
ssVg6MqolUz-ndBGKBlKsfb4A
p942
(dp943
g3
I2270
ssVlyvI4akZ5_XQrp-06MVMlA
p944
(dp945
g3
I290
ssVGUD49EIrgLn7UbasgD4ftQ
p946
(dp947
g3
I1196
ssVvppxzkWj_ZQKdUrdyM7mwg
p948
(dp949
g3
I1813
ssVJS7YiwbpYPvlfM2gCG1GMQ
p950
(dp951
g3
I2118
ssV_Kq5KTOhgWn4h1-Q0fAXcg
p952
(dp953
g3
I488
ssVJsb8Y-c2LtamVN1DE6-1sg
p954
(dp955
g3
I2020
ssV4Dqeb_NGFpLG1PJp7wqaJg
p956
(dp957
g3
I808
ssVRdKgYHJfOX-GNIX2N_lkhg
p958
(dp959
g3
I1647
ssVZO4ypYw9EUBF5lRlnIOwWA
p960
(dp961
g3
I2029
ssV9MmNbgikabuqWOalj73KwA
p962
(dp963
g3
I1482
ssVL3xw9bfKdJ_LaZbCwI9HGA
p964
(dp965
g3
I556
ssVAWcwYAZyqZOheTNEwdAF8A
p966
(dp967
g3
I1348
ssVmha1Xd0asQfPeETU9Hx3vw
p968
(dp969
g3
I1019
ssVyM4XsvRUHWuz7R88eQRsHA
p970
(dp971
g3
I610
ssVIKJR3VafpwuJr7ILYnSO7Q
p972
(dp973
g3
I2252
ssV54w6Vv5Ke-HPusac0N69fg
p974
(dp975
g3
I1779
ssVdXSBS24lhX9SjrFs8Nxo6g
p976
(dp977
g3
I270
ssVp7oREbtJKOZrNlrkAYbZ_g
p978
(dp979
g3
I286
ssVa99f2UeBwZzZq00KMGYQvA
p980
(dp981
g3
I879
ssVdELD_6wEphnCqS85pqGo8A
p982
(dp983
g3
I978
ssVWn47EMhtvJQZTsfvvcnkJg
p984
(dp985
g3
I68
ssVOyBfnv5-vUh5jboec6A2xQ
p986
(dp987
g3
I57
ssVBc8Rh0lSJKs10JKvxIo26Q
p988
(dp989
g3
I1077
ssVk2u1F6spBGhgk2JtAe97QA
p990
(dp991
g3
I1840
ssVhnCf18XK8Cz0KQJZ6nLXFw
p992
(dp993
g3
I395
ssV2DCpsscwe7uSrpF8_dClfg
p994
(dp995
g3
I1480
ssV8jYpVtXf9qFl_NS5yWhlbg
p996
(dp997
g3
I1192
ssVp7spZ82n3Co0YXqNNTa-Zg
p998
(dp999
g3
I1304
ssVyPejZVwY1lvehq28pEGgpA
p1000
(dp1001
g3
I1774
ssVCpG-O_CfqWUH10-74nvwWA
p1002
(dp1003
g3
I2190
ssVGC9GHvDBeHWRFH8IzmjQ_Q
p1004
(dp1005
g3
I1983
ssVD8HIs6O2r1_dEZoBQfKBDw
p1006
(dp1007
g3
I592
ssVtkJsmZeZqjCdZnVSh0qtOw
p1008
(dp1009
g3
I1539
ssVyYFbiYBJrOGDFSfjMlBBkw
p1010
(dp1011
g3
I338
ssVHFjt0Dpq4wJVj9IpFzDbYw
p1012
(dp1013
g3
I641
ssVCiAbX7zbQamuAvZSVfu9zg
p1014
(dp1015
g3
I1855
ssVAEYSDPOImbTncErJBjDGng
p1016
(dp1017
g3
I973
ssVMJ2xFLYg_e9d62Wbxr50aQ
p1018
(dp1019
g3
I1151
ssVZ_IPU5stsJq2DdgdBQxC9g
p1020
(dp1021
g3
I2199
ssVWafqNoP1iULeQF2br4v4Pg
p1022
(dp1023
g3
I1702
ssVlpyN2FydeLSpENyU1klW0g
p1024
(dp1025
g3
I212
ssVTZfpMx086IiaL0h9DFZWvw
p1026
(dp1027
g3
I1238
ssVf2vSByeyI8_MzKUiqFqCbw
p1028
(dp1029
g3
I278
ssVUmog0G6lgmMzM9gbFYACgA
p1030
(dp1031
g3
I2197
ssV04xDhY_bmIbV3oYPt47nFg
p1032
(dp1033
g3
I692
ssVshdASrciwOzYLC-oYb4dHg
p1034
(dp1035
g3
I1752
ssV3Z2c8dL_nRXc7dd5_sFsPw
p1036
(dp1037
g3
I198
ssVEUgv13qRQ0OhmG40x_fcFg
p1038
(dp1039
g3
I31
ssVprNDsstT2y8g5lT2LG9NPw
p1040
(dp1041
g3
I172
ssVoSNNRyjMpe5Mu3VGV6gbtQ
p1042
(dp1043
g3
I760
ssVR4yHus6H2bTRCADegjZLYA
p1044
(dp1045
g3
I1977
ssVpx2RiQ7zbM9BR9ALuwkJfg
p1046
(dp1047
g3
I67
ssVMEOozvDYFPR_zm9FcUjunw
p1048
(dp1049
g3
I2107
ssVtpl4rYAABbq83vUYuqHSlw
p1050
(dp1051
g3
I1293
ssVj3tsCLDfix-PJpxIRS8lnA
p1052
(dp1053
g3
I709
ssVukcy2ST1m2RSxQMpcowq3w
p1054
(dp1055
g3
I388
ssVE9jtD7EFBRQDaswk6goqDg
p1056
(dp1057
g3
I224
ssVMfzQr1wAuA-Hj1eNHPqAgA
p1058
(dp1059
g3
I1000
ssVuFmgbCV_EtNT6S5pZDhVpQ
p1060
(dp1061
g3
I524
ssV-iMhSl5jV5GL7Lv7sFez0w
p1062
(dp1063
g3
I1794
ssV8fhnxIkuGyXner8qB08B-Q
p1064
(dp1065
g3
I530
ssV6NinikgjcE6eoaDKR74Drg
p1066
(dp1067
g3
I839
ssVj8bhmzRukocEe2KgHfsuAA
p1068
(dp1069
g3
I1170
ssVpt4qyGxxHB9uVodhWsskVQ
p1070
(dp1071
g3
I690
ssVamv1I9D-4LaOvmL9fVa5sA
p1072
(dp1073
g3
I1865
ssVSJoMGpnY0DVtMlpjFK78-Q
p1074
(dp1075
g3
I637
ssVadcl2Z9yjoGfTRaWriae5w
p1076
(dp1077
g3
I2009
ssVGDi9_3Rn0N7LHHPXdJ3fFQ
p1078
(dp1079
g3
I1039
ssVKe7DuzDWnOgTEdzCnev7nA
p1080
(dp1081
g3
I666
ssV7u5AyDmn77w-l6a77x8M6w
p1082
(dp1083
g3
I962
ssVWy0cQzLPCBAtLiyr03Tp6A
p1084
(dp1085
g3
I2121
ssVFBE0gDdN4fZH-6uo-mWgPQ
p1086
(dp1087
g3
I93
ssVyJm-r9XFET3o8utPvjjDfQ
p1088
(dp1089
g3
I1564
ssVYxYi0TSYGZUipJQq5sUriw
p1090
(dp1091
g3
I419
ssVKCIm4pO8HIj_cOietJ_Axw
p1092
(dp1093
g3
I1703
ssVyneluytnFRAf-s4i3JDbIA
p1094
(dp1095
g3
I18
ssV9rnGNvOtWNwmd0sLL9FTyA
p1096
(dp1097
g3
I1548
ssVnb-7hIBnNq444Cox8z4XhQ
p1098
(dp1099
g3
I1422
ssVrfZfa9Nycdr0QiQQoVMwgg
p1100
(dp1101
g3
I1915
ssVRwuMQEsnpT1hAoFPwTws7A
p1102
(dp1103
g3
I1089
ssV9BvPJnPms8x7G2Hi4BBmmQ
p1104
(dp1105
g3
I993
ssVrEtF8ME8LdO54rMhDhXUKA
p1106
(dp1107
g3
I2108
ssVuWZXxILSlzTbMvXE7DaEbA
p1108
(dp1109
g3
I392
ssVeL3SuwgPa8olEuZjx0YvNA
p1110
(dp1111
g3
I1585
ssVO-Offow2UVaab04Wwv9g-w
p1112
(dp1113
g3
I451
ssVejdrB2HwZCvb0C1XVlbqPQ
p1114
(dp1115
g3
I1053
ssV5A_PhiRe9-D2RdObFF-I1w
p1116
(dp1117
g3
I1240
ssVDhrDFWCdDhkKmZDJn75muQ
p1118
(dp1119
g3
I1849
ssVMIvCXHgE_vcKz7lYS5FPvg
p1120
(dp1121
g3
I1261
ssVwZakvhQ41cw6gjFpi7l2fg
p1122
(dp1123
g3
I549
ssViAi-PePA7GYb_BeQEnoCSg
p1124
(dp1125
g3
I1301
ssV3m5rsk7xoLddGrLK3Qi5rg
p1126
(dp1127
g3
I2028
ssVOEs1nIfj6wQe5Pf4ClhDrA
p1128
(dp1129
g3
I1590
ssV9Z106oUlRm3dq9QrOQ5h4A
p1130
(dp1131
g3
I1297
ssVLVo89BOC1S5AHVVGJyOJ0g
p1132
(dp1133
g3
I1560
ssV65GC-tdQLtOEaFieHKaG-g
p1134
(dp1135
g3
I1309
ssVsYFuZL35EYDU5IOfwrtwnQ
p1136
(dp1137
g3
I1734
ssVkFelQwJX3ZoOyhhTgTC-tg
p1138
(dp1139
g3
I2283
ssV8EaO99Q3E_SS8KzOR1rFrA
p1140
(dp1141
g3
I1327
ssVGzq5CtS6pD4JOKvXNJ4B3Q
p1142
(dp1143
g3
I1475
ssVcJybMiqcR8KiFz0Q3Oo7bg
p1144
(dp1145
g3
I526
ssVZaoOjECth7GOtcYpgBGWIQ
p1146
(dp1147
g3
I1536
ssVwRRVIAIo8AbdayfvWky7jg
p1148
(dp1149
g3
I698
ssVjv90_r4pRbyo3aKIipj-OQ
p1150
(dp1151
g3
I315
ssV1gspFi59uDO00PSM5LMlhQ
p1152
(dp1153
g3
I581
ssVs84bPsSHAALBpsgTsHw_Vw
p1154
(dp1155
g3
I1742
ssVhqjDAPapGKJ3U4wUN1dGMA
p1156
(dp1157
g3
I1073
ssVPTAgCZJyUNJG3_XWz53hUw
p1158
(dp1159
g3
I1594
ssVrS8zK3NwQBUZSEUlPt7TKg
p1160
(dp1161
g3
I639
ssVixQLGjXSW7FTBdiVKf5O0w
p1162
(dp1163
g3
I1825
ssV9zeFV0CBTzcOQJ2rDKHhcw
p1164
(dp1165
g3
I1198
ssVA0r6dCcT1UZJcEkdYs4H_Q
p1166
(dp1167
g3
I1395
ssVgH9LB7WrLOj1sqyZ14nF1A
p1168
(dp1169
g3
I1344
ssV3qJLajDPgc-Imjk5INt8mQ
p1170
(dp1171
g3
I1239
ssVntUpAxMcQX1Ux3qSt6-UTg
p1172
(dp1173
g3
I1256
ssV4Cq-zhMELdFeRZHN9zy7-A
p1174
(dp1175
g3
I1339
ssVBZkcm4IPbnBlmmT8b3ukRg
p1176
(dp1177
g3
I1746
ssVnSSXAhmBMjjPUaYbqsLsVA
p1178
(dp1179
g3
I2119
ssV_L9bVY6Z6_zO4UwDAwzsaQ
p1180
(dp1181
g3
I1518
ssVfOnuCvEPM1sfkWBNI4ne3A
p1182
(dp1183
g3
I173
ssVQxDbRWE2pPidwILfk6F1Ew
p1184
(dp1185
g3
I1743
ssVspv0G_j8KgUjsXryWedTzQ
p1186
(dp1187
g3
I575
ssVWZJEdsPReU5l6ZddRGMq9g
p1188
(dp1189
g3
I793
ssVZbt_xK9M2k32DzzVkoPj8g
p1190
(dp1191
g3
I2023
ssVhdndaMyC7_G9qKA-pNvsiA
p1192
(dp1193
g3
I756
ssVnte_amQXKvsNUPdS4zC60A
p1194
(dp1195
g3
I675
ssVQm9QOYeVXYiNh0Osg8jo4Q
p1196
(dp1197
g3
I1249
ssV7LZqJWXm4lEkSh112v79vg
p1198
(dp1199
g3
I1857
ssVs6QEZxEYxECGtc8EHChosw
p1200
(dp1201
g3
I475
ssVjmElDkSOU6K_ff4NH-O8qg
p1202
(dp1203
g3
I2176
ssVSgND2BhBJU1VplsbHzlOJg
p1204
(dp1205
g3
I1276
ssV6LkO5tAYYimFc0CgVGUk3A
p1206
(dp1207
g3
I1741
ssV067gQ2JZS15cdUhnot6rKQ
p1208
(dp1209
g3
I2125
ssVd3rsz09litqwVDGC6egItg
p1210
(dp1211
g3
I27
ssV1mmH626kCKTQfmJjodDEbQ
p1212
(dp1213
g3
I2136
ssVXoDauxslLmZbT3SkmdaDRg
p1214
(dp1215
g3
I909
ssVgvMlqi-82UtLCFDVqT2j7g
p1216
(dp1217
g3
I1496
ssVYTpSBg3DlYKSFl357F5-tg
p1218
(dp1219
g3
I1798
ssVyjLmQjiCn_8555HEmdpUaw
p1220
(dp1221
g3
I1072
ssV44FZYP4fQbeAimA818oHtw
p1222
(dp1223
g3
I1748
ssV9IAMTjvhfHMoCqggUic5xA
p1224
(dp1225
g3
I1971
ssV0Ov1O2Gd0dwjkSaj5NJbhg
p1226
(dp1227
g3
I1575
ssVWp0fK5noASGF1-6PnKVMLA
p1228
(dp1229
g3
I1158
ssV_MLUOGwK-1jgwub4Wzwk_A
p1230
(dp1231
g3
I771
ssVG8ibBQ5Wf4zA4zNCFRtQPQ
p1232
(dp1233
g3
I1650
ssV6kmu0mYbdpMIOZ6Y0eVsxg
p1234
(dp1235
g3
I2228
ssVjagd2iT4WJ7uP4r_IUH-aw
p1236
(dp1237
g3
I1555
ssVZ5ZBzz-_A7OfYSaAZPHB7g
p1238
(dp1239
g3
I1461
ssV8-3AWD4V5HitvOtwnQCDIg
p1240
(dp1241
g3
I1605
ssVgI9xDj8hiKdRN6qDy6O_ug
p1242
(dp1243
g3
I29
ssV3jF_fN98nhVbsol5yOqNQA
p1244
(dp1245
g3
I1920
ssVzpVkBsBZGRZGl-gGj_uCSQ
p1246
(dp1247
g3
I1018
ssVg1hPSh0rTKcBpICKMOpt-g
p1248
(dp1249
g3
I19
ssVXtVk1s9I7gzrrgZuaAyGRQ
p1250
(dp1251
g3
I411
ssVTganG8st3IE9uEmo-aGb6Q
p1252
(dp1253
g3
I188
ssVPBJvK7NUkDZLsXq6P96CNw
p1254
(dp1255
g3
I1402
ssVJpytS7FOJQ1UkrVtcVJ0rg
p1256
(dp1257
g3
I59
ssVKE8gK3Trqbk8Y_q9REdYlw
p1258
(dp1259
g3
I1298
ssVHpKLR1mrb634jCnTXQr3aA
p1260
(dp1261
g3
I304
ssVzKOKtdCytj3wRoh3omSw8g
p1262
(dp1263
g3
I1044
ssVsrwjDH2hYFbQrR0ZH8s7cQ
p1264
(dp1265
g3
I1947
ssV4GJWpmNh6RIe0AW4wj8PEg
p1266
(dp1267
g3
I824
ssVkgsx5zQLgoxJSqn0pxsehQ
p1268
(dp1269
g3
I402
ssV3L4BtRrMEvAWpUXtoQ-cZg
p1270
(dp1271
g3
I946
ssV1MywGdJ5wFWsN9M4XexAtw
p1272
(dp1273
g3
I1505
ssVk8SnKLLlnCft0Wfok-4jsA
p1274
(dp1275
g3
I2154
ssV3OxuTDJmqA6zTIrXFWG39g
p1276
(dp1277
g3
I1630
ssV2TPvlCjRfZlo42ZNG-F44A
p1278
(dp1279
g3
I1294
ssVhy_C0U75FpVaPVkkEflPXg
p1280
(dp1281
g3
I156
ssVWJhG3YGrc72Lncv0ACNbwQ
p1282
(dp1283
g3
I1270
ssVeEKa2FEP9rKwdoZ6thYyNA
p1284
(dp1285
g3
I463
ssVEjeq3V3-BrhO_4iwWmVBag
p1286
(dp1287
g3
I1885
ssV5OofuHNtDuEI-XbN7hbPzA
p1288
(dp1289
g3
I1036
ssVLIl5vcUHRkZlhBS5H5uzdQ
p1290
(dp1291
g3
I1379
ssVwPmKOwVRjyADg8dBTnNEIg
p1292
(dp1293
g3
I651
ssVzKWGQ2kbJx8qwpfc9eIxig
p1294
(dp1295
g3
I328
ssVlsY05eqfv9KPFbRCJrw_fA
p1296
(dp1297
g3
I432
ssVo2OPLZqAWmVmXJi5rY7Q7A
p1298
(dp1299
g3
I1074
ssVemsL-X5iCF2VNNB7mCpI9g
p1300
(dp1301
g3
I746
ssVE9vZVCahU4eN1wrra6J_6w
p1302
(dp1303
g3
I711
ssVNOrb1STvRGm0Uy_XoMDe4g
p1304
(dp1305
g3
I995
ssVvn3lecMsL3kXVe-7hg3gLg
p1306
(dp1307
g3
I1639
ssV_v1DmsDThDSRjBwmiRVbnA
p1308
(dp1309
g3
I1085
ssVYVK9az5yUFbpQchy0DYUeA
p1310
(dp1311
g3
I1777
ssVuEWZl4BK_Tde6pKxNjXy2g
p1312
(dp1313
g3
I279
ssV8ijB1-OsfKTncOLrEmfGFA
p1314
(dp1315
g3
I1706
ssVyzxNvgDmp_NqfVBk_ORPHw
p1316
(dp1317
g3
I1374
ssVC6cNYbofM5kpH3jdat9Xhg
p1318
(dp1319
g3
I2021
ssVuerxfEFUMmMhO3Ie-50jmw
p1320
(dp1321
g3
I2003
ssVR6OdqGQTtr2aDb-KWqHtxw
p1322
(dp1323
g3
I584
ssVzV-m715h7mTBwSORtn2tQQ
p1324
(dp1325
g3
I1444
ssVewvsoOiFqN02y3O980VMvQ
p1326
(dp1327
g3
I519
ssVoOayyTrVO-PbVeXXsh_JEQ
p1328
(dp1329
g3
I182
ssVGB3xbyiaQSX_7mPfx6HOoQ
p1330
(dp1331
g3
I1822
ssVwM7VQJ2SXIQWEDTEokG99g
p1332
(dp1333
g3
I1929
ssVApWNDrDgb1Os9_tIoi2C9Q
p1334
(dp1335
g3
I206
ssV_lvBXBxpW0AFO3TQ4_yPzA
p1336
(dp1337
g3
I39
ssV8GyWisZIR-bT8B_ajybj9g
p1338
(dp1339
g3
I2017
ssVhi_thAZJUhMxZ7wSCfC-eg
p1340
(dp1341
g3
I1758
ssVfJBIsEiyC7DYh9HvMDSs3Q
p1342
(dp1343
g3
I1056
ssVdmsNzWTbpo5LjIbcLAwBsg
p1344
(dp1345
g3
I843
ssVerbP5yIs1tzCm8D4t-HGbQ
p1346
(dp1347
g3
I1540
ssVuYqiXQGB6PslC4SThE1ASg
p1348
(dp1349
g3
I2143
ssVgb6zSqA3OfETc1bgazDLwg
p1350
(dp1351
g3
I152
ssVwbgYN_HdygKk9id4rK6HrA
p1352
(dp1353
g3
I2070
ssV7FM-XTds11h6SiqY3ciJIA
p1354
(dp1355
g3
I2206
ssV5fiC7aSgkqzGX7aN0JA3QQ
p1356
(dp1357
g3
I2286
ssV-4bjYLtWgqlY-tbv9VMeUg
p1358
(dp1359
g3
I1841
ssV8vq8vlwxW4EdqtUHyiayMg
p1360
(dp1361
g3
I2237
ssVk71n8bELfnhMeC63xhUxzw
p1362
(dp1363
g3
I1910
ssVaO2PpD3dhn5kmwyr_QUh3w
p1364
(dp1365
g3
I248
ssVT3yR0xYaj_eibS385G_R-w
p1366
(dp1367
g3
I104
ssVALhS3YlrJz9de7RiwIpkDg
p1368
(dp1369
g3
I1587
ssVnbxsXJHWdrT11WfvV00Z6g
p1370
(dp1371
g3
I905
ssVpjoghjb0ZcuDWHvz02dSVA
p1372
(dp1373
g3
I2271
ssVJSq38lWav5u3zIsdL9Bb6w
p1374
(dp1375
g3
I1836
ssVi50BnBzVzmJp1d9g4l8_cA
p1376
(dp1377
g3
I1243
ssVLyg-0HILobCBdwE4bcFs5g
p1378
(dp1379
g3
I1778
ssViCFZ6zZkq1ok1oQSX6TArw
p1380
(dp1381
g3
I758
ssVEGqEVz2j1t9wQ4DmmzEeAg
p1382
(dp1383
g3
I1167
ssVaanQAeF8EDsbZ6l5YddEsQ
p1384
(dp1385
g3
I1960
ssVScmPX9SnTliI76fhGFcCXw
p1386
(dp1387
g3
I1508
ssVJFM0o9QJSvdAmXohjYqRuw
p1388
(dp1389
g3
I2229
ssVnTGmjSIzFfSdfGOa3DG77A
p1390
(dp1391
g3
I1283
ssVWaOMffVE4v1QpKor91Ap9w
p1392
(dp1393
g3
I2152
ssVeTorLt5F7PnmSRX8e9tu5g
p1394
(dp1395
g3
I1300
ssVDhzlwv04ewkviiOzpWgyiw
p1396
(dp1397
g3
I566
ssVa-ni6SmhJ6TzCS3auPpxTg
p1398
(dp1399
g3
I1643
ssViPDBT_k_9NL_b34hpjy-gg
p1400
(dp1401
g3
I111
ssVzE0yNDf_URTwGsuvUG22KQ
p1402
(dp1403
g3
I515
ssVY6nFfP2v17y5hqEmZp05Mw
p1404
(dp1405
g3
I1596
ssV9tAH3Vl312bwk6Yw0cnP0w
p1406
(dp1407
g3
I1925
ssVuG3SSPUfkUGLzHAUGDtg8w
p1408
(dp1409
g3
I292
ssVY4ZWKhIexno-odJiQKE1aw
p1410
(dp1411
g3
I774
ssVKf5tnfXtIy-torOrHY3nIA
p1412
(dp1413
g3
I665
ssVVlMTcr99IXpqBKBH5rg1VA
p1414
(dp1415
g3
I1999
ssVH0nYlvGjMA9szTaqIwTwpg
p1416
(dp1417
g3
I385
ssVyaU-PG_jQzliri3VFS29dQ
p1418
(dp1419
g3
I1388
ssVxNWuI4DDw4NMMEXnpy-g9w
p1420
(dp1421
g3
I363
ssVaWHX1QdKbSgSkMA9N0a8MA
p1422
(dp1423
g3
I1534
ssV-pZBAoPnG5DW32qOzbJxfA
p1424
(dp1425
g3
I201
ssVdK60RfuSM5lFdOcCWBA9ug
p1426
(dp1427
g3
I1017
ssVD9ry7SJ5vtsOc04b5zqkbQ
p1428
(dp1429
g3
I1513
ssV4VaskLw9ByZSJhRnC4mwJg
p1430
(dp1431
g3
I178
ssVHB3GhY827PMyN-UBOZXpPA
p1432
(dp1433
g3
I502
ssV-50fOYTeDK4_9m4gZLHaIg
p1434
(dp1435
g3
I1412
ssV1Bezt5unHiEaZsQDmupUgQ
p1436
(dp1437
g3
I528
ssVD5mlAUZMCQ8yc0PxOgGpsQ
p1438
(dp1439
g3
I1147
ssV24j1qZnTaJHHeNSHzi5ziQ
p1440
(dp1441
g3
I1956
ssVajlsUu-QukZC8P4qD8iI2A
p1442
(dp1443
g3
I1178
ssV6YyyBrTw-FaF4Mit22uk_Q
p1444
(dp1445
g3
I661
ssVjT9RFCRhc_HjcwIfUT-eFg
p1446
(dp1447
g3
I1963
ssVS8A3ZuhNEb9CIYvUQlGI7Q
p1448
(dp1449
g3
I959
ssV0ALGfIEnbtKMxjfCjGSN3g
p1450
(dp1451
g3
I2139
ssVLMlBCXFVAHdPnSA94jc6PQ
p1452
(dp1453
g3
I2164
ssVISSbSYAIhvX3Ud4t8Tnczw
p1454
(dp1455
g3
I2232
ssViPnpD62l5LUL7WXaI3SJFA
p1456
(dp1457
g3
I2097
ssVhl708f5Fr1A5PCZSrILCfQ
p1458
(dp1459
g3
I650
ssVVh7HNMDLVVmnnBsIe7i7Qw
p1460
(dp1461
g3
I931
ssVX6PWVc-wag3mSP_4cme2Hw
p1462
(dp1463
g3
I1212
ssVtDz2oZNtKABUj4MNF5aVCQ
p1464
(dp1465
g3
I460
ssVJ46JyRtoOa2iITZbG8VhkQ
p1466
(dp1467
g3
I2062
ssV8NnOr30vSjXJF3BAWgLLMA
p1468
(dp1469
g3
I1891
ssVJCfHBL4zGkPjtKVd9hS_Bw
p1470
(dp1471
g3
I609
ssV4YzRc68mopn4s6s8KZx7Ew
p1472
(dp1473
g3
I565
ssVyZXQ0kAoQNYLz5md93VsOw
p1474
(dp1475
g3
I1921
ssVpano9IginH1phYO5oQbnVg
p1476
(dp1477
g3
I1253
ssVJ3I2NClEbD1Xr8lOdjxlqQ
p1478
(dp1479
g3
I1060
ssVP94v4KaofsUqaffU8ffTmA
p1480
(dp1481
g3
I1892
ssVF9gLnpnWD5q8hKPmFhza-Q
p1482
(dp1483
g3
I902
ssVclmzHZrQXw8qu8WwROFr6A
p1484
(dp1485
g3
I1187
ssVfTaHpK5KXUre-EI8eWP82g
p1486
(dp1487
g3
I877
ssVAbYhAHw5uI4mEfx0UPIWIQ
p1488
(dp1489
g3
I1887
ssVOR1ift7_9OHEU0z0Gagn4g
p1490
(dp1491
g3
I1521
ssVhfmI1D0iyB8HL-yQzrKaiw
p1492
(dp1493
g3
I1366
ssVHW-cL93tvU7qng1sZueKWw
p1494
(dp1495
g3
I211
ssVgpMsx8fRxIJll53tvF65LQ
p1496
(dp1497
g3
I1083
ssVTTC8b2uayW0QznMnaXHP6g
p1498
(dp1499
g3
I307
ssVhWPOj78yi6CQub26elkHHQ
p1500
(dp1501
g3
I1851
ssVStV0GklOU-zGAT4t0NqThA
p1502
(dp1503
g3
I937
ssVvM8dDV8H94c-kMQsmSMWAA
p1504
(dp1505
g3
I2187
ssVUufvv9CBpJmPRXDQTSBKYg
p1506
(dp1507
g3
I805
ssVhkZfGhWp32V1zFYdxONQkQ
p1508
(dp1509
g3
I425
ssV2OPRh9VL75F-_ifjTdCcIg
p1510
(dp1511
g3
I1152
ssVSmDl7nRUwScvZvkILM9HpA
p1512
(dp1513
g3
I364
ssVtv-KrSTGhaHAIupI-keEFg
p1514
(dp1515
g3
I2039
ssVqFecIwj9hMBqaRl89li_5g
p1516
(dp1517
g3
I1918
ssVM0_BP_ie-zlFGZobbClYaA
p1518
(dp1519
g3
I1220
ssVaPLAmJ9murDU27_C_08hWQ
p1520
(dp1521
g3
I2008
ssVxWVgoNp_oUP_gMRMO8iElw
p1522
(dp1523
g3
I807
ssVlViWWAZLMGz_TMKfrLon-w
p1524
(dp1525
g3
I1952
ssV3PleJJEDyGLIWqaW7JlTyQ
p1526
(dp1527
g3
I202
ssVn49V372USlnwgzDOo0VEbQ
p1528
(dp1529
g3
I840
ssVfbkk38GHlnP_q5mUnVlwKw
p1530
(dp1531
g3
I1908
ssV0clhhTKZhUSUyf-Ivkcl_Q
p1532
(dp1533
g3
I299
ssVNTSDlVbBNw34dV1t7eFRNw
p1534
(dp1535
g3
I1858
ssV_j4PdUTEw7N3NXQM628ZKA
p1536
(dp1537
g3
I804
ssVa37j8KTozUX4wYEjiZOfaw
p1538
(dp1539
g3
I1305
ssVq93UhMDsW5zpvtdUvlXZug
p1540
(dp1541
g3
I1789
ssVfcvP-cuAN_h3Xu_uQOJDLw
p1542
(dp1543
g3
I1935
ssVqvEErUS-Xkssg9oKn9xNZg
p1544
(dp1545
g3
I1806
ssVYrA3GdmsmafmeRYqSoPxyA
p1546
(dp1547
g3
I719
ssVBOA6IMbiZB2RVZFp-TTiKA
p1548
(dp1549
g3
I440
ssVp_n5gwvyOGnGbCyAYsj74g
p1550
(dp1551
g3
I114
ssV0Eck5WWuXkzee6uvqMy6zg
p1552
(dp1553
g3
I656
ssVnuVNtgN6Y3YV0SQ2_7DWYg
p1554
(dp1555
g3
I795
ssVuBp2Jmip2qXQ0iWHUDY9sQ
p1556
(dp1557
g3
I1055
ssVcm_rBQTpDoqgKeZAgZB0hg
p1558
(dp1559
g3
I1397
ssVQVEurU1FUq3z3DwLWI98Kw
p1560
(dp1561
g3
I798
ssV0rI5H6cZ3sUt3llaOqLJkg
p1562
(dp1563
g3
I1328
ssVywqTxyN1mjsztV4S0E1HLQ
p1564
(dp1565
g3
I1340
ssVh5v4Wcx1H6kJ9-LhOvnoZA
p1566
(dp1567
g3
I988
ssV132m3lRoO1tw3rdlGvYF4A
p1568
(dp1569
g3
I1214
ssVjzNujHInKuFQCyf7UECIjw
p1570
(dp1571
g3
I1324
ssVnT_87U8iE-H6ULTXBkfcQg
p1572
(dp1573
g3
I2174
ssVx75NgCvjLIrp2qS32umihw
p1574
(dp1575
g3
I825
ssVbbXZST_aMTBCKNEqyCM_3g
p1576
(dp1577
g3
I794
ssVd-0HwKEMHmpbq8wAP_0_Dg
p1578
(dp1579
g3
I2131
ssVgiPXxkQyyVhkvfqas2o6fw
p1580
(dp1581
g3
I1940
ssV--hWC2FYuvaItr5-_Hp8Mg
p1582
(dp1583
g3
I521
ssVKntKztuTHOnSh4Oq4C1NcQ
p1584
(dp1585
g3
I47
ssVMZyNADoZlyPQ-bEIe6innw
p1586
(dp1587
g3
I1646
ssVkLx-jpNgLtgNRRu2Y1tpIg
p1588
(dp1589
g3
I1315
ssVuNHKvURJfvXDyO6-JIXDNw
p1590
(dp1591
g3
I1649
ssVr5vDrlFu45VK6kW4vyuvMg
p1592
(dp1593
g3
I2194
ssV550cb6mWIDtABn4EH8vg3g
p1594
(dp1595
g3
I333
ssV07pUh-U0FXJ9XYhQbZoJIQ
p1596
(dp1597
g3
I1724
ssV_9fi5b4KGX6xZWbOGN4d6A
p1598
(dp1599
g3
I2192
ssVY_nk4KhoHlkd1WRKCfIhuA
p1600
(dp1601
g3
I929
ssVDupQVr6x98F2fTDICPz7ww
p1602
(dp1603
g3
I1501
ssVzjX3Bph1uSWtrhaLCuyC2g
p1604
(dp1605
g3
I2186
ssV1E13KtzbFzo2mXB0hZm1EQ
p1606
(dp1607
g3
I1867
ssV9Dks5wGHKa8fHXQaZ9Xh5Q
p1608
(dp1609
g3
I2123
ssVEvZ8syraeQq-DIorclZk4g
p1610
(dp1611
g3
I1117
ssV935SvZzP-ueGJ5hLfIe76Q
p1612
(dp1613
g3
I1054
ssVPDNQ2tOM42mBankQlPlUYg
p1614
(dp1615
g3
I2114
ssV06FvM-0mpGxQSfoV4Em7bg
p1616
(dp1617
g3
I253
ssV85URiCpfn2n_2_gUFTdODw
p1618
(dp1619
g3
I1497
ssVRxZXO2dhKSUp7YX6KrVe2w
p1620
(dp1621
g3
I1086
ssVX0VDOicOaSMTLYRfyrLdpQ
p1622
(dp1623
g3
I78
ssVc8brOoAF-73h_O_3CnVmag
p1624
(dp1625
g3
I82
ssVQnMPMD8Nh3ErZGfMRGAeYg
p1626
(dp1627
g3
I2056
ssV4TNsxnEkWWarH305tNLleQ
p1628
(dp1629
g3
I1611
ssVN_KGQ-7-TN44yWU-WByV1g
p1630
(dp1631
g3
I2106
ssVq0pk09aUIGSUj0OK_nr8GA
p1632
(dp1633
g3
I1672
ssVpJFcE-V6jXI141oXXXUCrw
p1634
(dp1635
g3
I629
ssVPSeJKgfNRUSh6GuVnr1E1A
p1636
(dp1637
g3
I146
ssVK_lEGOOP_2VhaJHHlrdk7g
p1638
(dp1639
g3
I2000
ssV82KGbjsK4du18MGEu1RzbA
p1640
(dp1641
g3
I2024
ssVKJRXVZ9T4tzpVmHvYmFPrQ
p1642
(dp1643
g3
I470
ssV7tPJMdCL8UDwg7otQGAXdw
p1644
(dp1645
g3
I1255
ssVpQaIJoVUwFnTMoT9USnkGA
p1646
(dp1647
g3
I1319
ssVV1po7TjUzklCpdZ3cOp4Og
p1648
(dp1649
g3
I359
ssV38YR6u6T62hgpwdUAeyyIw
p1650
(dp1651
g3
I1667
ssVlSukjnlYV0rdWWGSn4eGNg
p1652
(dp1653
g3
I800
ssVekVcadzsYQcUzaVmUgioZQ
p1654
(dp1655
g3
I128
ssV-uYutd6Y-BxIl3HOIsCZ7A
p1656
(dp1657
g3
I437
ssVIE_nJq65Qpso5fN4tG9zjQ
p1658
(dp1659
g3
I416
ssVJlO00iYsaV-aKpgB6PSx4g
p1660
(dp1661
g3
I449
ssV__ijoBvRgmfpLRLfBtD9qA
p1662
(dp1663
g3
I2274
ssVxqtbShA1yX-zD4LdQQBogA
p1664
(dp1665
g3
I548
ssVtx3WZJMD6vbFVWgpm-OzDA
p1666
(dp1667
g3
I2078
ssVBKSE3pUxYoq4r1mWbRBEOw
p1668
(dp1669
g3
I936
ssVC1cv0JYSBCJ-Qw4zX6ZUoA
p1670
(dp1671
g3
I595
ssVKYr41XbZXHX_1eWHxkIJeQ
p1672
(dp1673
g3
I576
ssVtemqFUb-59a-H8awz2e2Ow
p1674
(dp1675
g3
I2105
ssV1q7w4vkNOj0JvJzY2uQxTA
p1676
(dp1677
g3
I1652
ssVJB-2f1aGRTOjrc42RJ4I-Q
p1678
(dp1679
g3
I1237
ssVSTRH5HCQ9lkCMNy5R7pq9Q
p1680
(dp1681
g3
I207
ssVlqJkIl9onCwEhocSDCYDGw
p1682
(dp1683
g3
I1274
ssV7IWNzfnDVs16lcQaoOk4lg
p1684
(dp1685
g3
I199
ssVE7tozhm23vJSKBfozHWEMQ
p1686
(dp1687
g3
I1924
ssVEROQwdBzr2gHMOTSeERkmQ
p1688
(dp1689
g3
I1599
ssV5xjutHCOYBMBWGnOoSgEKg
p1690
(dp1691
g3
I735
ssVlvjvPFW1tBymHHN5Qank3g
p1692
(dp1693
g3
I1558
ssVut4EWwnnnWa7xhSstEgE2w
p1694
(dp1695
g3
I551
ssVXZR18aCHdKbZRkrWtBIsUw
p1696
(dp1697
g3
I200
ssVtSaji3-lHdlkAenZa8YGIA
p1698
(dp1699
g3
I435
ssV7Rfg_PLtU-Kny47JFj3jYQ
p1700
(dp1701
g3
I1246
ssV5j7qmDZTAetaH0yXFnAFyw
p1702
(dp1703
g3
I189
ssVrIPHe7Sk3rU3_K_O7Uqukw
p1704
(dp1705
g3
I731
ssVJiawW3Z3YL9i6mE7LQn0PA
p1706
(dp1707
g3
I670
ssVWUyljiflWc2i8K0ZsL_Nyw
p1708
(dp1709
g3
I466
ssV2u_x05V1DbhXssdFzMXcGA
p1710
(dp1711
g3
I334
ssVw5tl4s_SJ10RNxD5LYa-Lg
p1712
(dp1713
g3
I1199
ssVRqIMYSUznnA9r_e_ZnfykA
p1714
(dp1715
g3
I1707
ssV1kc6419aye0KDBV-SH9aGQ
p1716
(dp1717
g3
I1342
ssVVq7mSrFyHdu8jtXuRjiYBw
p1718
(dp1719
g3
I1181
ssVAiAUF1pkXWF-o6US7wV23w
p1720
(dp1721
g3
I203
ssVE83jZ7j07Hx-RcRiTbA_kg
p1722
(dp1723
g3
I1556
ssVR7q9DeuXA4-nLNnoctDlPw
p1724
(dp1725
g3
I444
ssVyOlUyTVoNBuouqCtKfDe0A
p1726
(dp1727
g3
I689
ssVhm6KwsSUEE5wyKLr6ZDyaA
p1728
(dp1729
g3
I1690
ssVr6ZJXv_v2dhU9vxejhVSDg
p1730
(dp1731
g3
I1007
ssVnF98Wf6ytap7wl58D3oJwA
p1732
(dp1733
g3
I786
ssVaAfkYj5DacC91NqPpU4iow
p1734
(dp1735
g3
I1618
ssVq5SLRRYLZeSeW63-HPQ3Gw
p1736
(dp1737
g3
I1183
ssV79MhROSJ1U8KBCupx7imRg
p1738
(dp1739
g3
I1317
ssV8JS2Abr9j_BX9EVDRRUh4Q
p1740
(dp1741
g3
I1066
ssV2z8bTdD1BhP-dH4uhulStA
p1742
(dp1743
g3
I1207
ssVNBWQSWjhqLeGBf750WwFMQ
p1744
(dp1745
g3
I775
ssV6AuI-RB8zGjT2f3iW2r19Q
p1746
(dp1747
g3
I1087
ssV39Dq_Wx0sbudqrJXT-a73Q
p1748
(dp1749
g3
I40
ssVjb9Gh7ALWdxeYl7vEcXYBQ
p1750
(dp1751
g3
I1111
ssVFa0cKTkPhxdYi9HpcuQh8g
p1752
(dp1753
g3
I246
ssV1eqABVIZN5jcroowp3_oEg
p1754
(dp1755
g3
I1362
ssVsqPU4NEndLF4EDuHTO-eUg
p1756
(dp1757
g3
I2032
ssVy8Q9ZF_R0VJFpHt8ML8X9g
p1758
(dp1759
g3
I1661
ssVeb6sH9Mn7ooUGuv1L0sUaw
p1760
(dp1761
g3
I1689
ssVR8--JI6KuOyt34GBgoEzow
p1762
(dp1763
g3
I1064
ssV-DV5uxeFoIvEo4eqSzkfIQ
p1764
(dp1765
g3
I920
ssVo7um5jfDUkF237SIGP7DDw
p1766
(dp1767
g3
I485
ssVaRgTBYbG-eZipFRIipGlrA
p1768
(dp1769
g3
I1392
ssVJ5oUCKzslgQDg6ByXveDCA
p1770
(dp1771
g3
I143
ssV1G7v15k03lh2Y6f2O1YKsg
p1772
(dp1773
g3
I46
ssVRLmUj1QGMz2dLBcdayuBiw
p1774
(dp1775
g3
I1781
ssVsW9EBhiRYOneugKBCQbhIQ
p1776
(dp1777
g3
I1365
ssVlaQyrQhNJ7AVH7adzb5FiA
p1778
(dp1779
g3
I1842
ssVa8SprmfnrFmIfDuhC3BfDA
p1780
(dp1781
g3
I175
ssVV439aM54psPKCUPycjgzug
p1782
(dp1783
g3
I1470
ssVARl3It1h6bbi_BhMOQ7XjA
p1784
(dp1785
g3
I1522
ssVjJlgHIU9ltclRKnhswpCvg
p1786
(dp1787
g3
I880
ssVFW67E8UxmR3sS3G7HrLFJA
p1788
(dp1789
g3
I2259
ssV-twmKuBk52lIrsJlP9gXZg
p1790
(dp1791
g3
I1651
ssVu96qtvQtEUYEftBGlrPXpg
p1792
(dp1793
g3
I2160
ssVcK_yP1K6zw1Mr4GD_EX-AA
p1794
(dp1795
g3
I1613
ssV3zCgzdkek0_IDeRUWyx_Kg
p1796
(dp1797
g3
I2061
ssVOlKtvqN_1y62p6mkYCPSlg
p1798
(dp1799
g3
I979
ssVXXZiOkma4VBeZTGhbGdkNA
p1800
(dp1801
g3
I1949
ssVvCFSI4C8FPTHYuk74XJaWg
p1802
(dp1803
g3
I954
ssVDVUy3pGA0yKwn7SaH0S46w
p1804
(dp1805
g3
I445
ssVvzwS0Hy3J5r3URvQ3eJr5A
p1806
(dp1807
g3
I2083
ssVIU9ArEUIijrMqNEgVKZDuw
p1808
(dp1809
g3
I1796
ssVNh9Nh26tHHwmFigMOO-CUw
p1810
(dp1811
g3
I2285
ssVg4gHCEcgbFqrK4J-XqvYug
p1812
(dp1813
g3
I1389
ssVAC84oF7Ciuw7M52RszgWUA
p1814
(dp1815
g3
I100
ssVL2t_ZoyCQnXzgO1uE7L1Nw
p1816
(dp1817
g3
I1449
ssVHQ2Fn7nJIFZaaexkpJXjvw
p1818
(dp1819
g3
I1068
ssVXo6W4Mk2fqsO30WTJmrkFg
p1820
(dp1821
g3
I1759
ssVPF-Kl6KSdVJFbiQdI1IufQ
p1822
(dp1823
g3
I2065
ssVlKfYxdROcuxmADXub5CyEA
p1824
(dp1825
g3
I957
ssVeDw9HamGz_mxaVbBEyfByQ
p1826
(dp1827
g3
I317
ssVYTrENuteaA0cc5JPkmAHlw
p1828
(dp1829
g3
I2102
ssVUopyPna6Cm0JjuiFCibkYg
p1830
(dp1831
g3
I1783
ssVStr5rjklAsfi64W1C9KB5w
p1832
(dp1833
g3
I1043
ssV5MklMpwmxJIinDORy-Li-g
p1834
(dp1835
g3
I2120
ssVZubK3U5PlTWy4VIQG_Wpzg
p1836
(dp1837
g3
I28
ssVuT7-7UnF06vj-xTNxFIfIA
p1838
(dp1839
g3
I1245
ssVZweZv5fEsl1crf8zG92W3Q
p1840
(dp1841
g3
I414
ssVtDqvTbunSbk5pmpd2Ot_Jw
p1842
(dp1843
g3
I2184
ssVSVhMOPgzS69RjoaHNhihkg
p1844
(dp1845
g3
I1955
ssV8ZchNx1nHZMXe1WpVTbDcw
p1846
(dp1847
g3
I1530
ssV6SxnRYFR3GUzGREKSttxJg
p1848
(dp1849
g3
I1318
ssV4GgRyG2HZCyNLZV--x0D6Q
p1850
(dp1851
g3
I837
ssV0Jlviq1YD76N-WK_GUeDMw
p1852
(dp1853
g3
I1817
ssVyhAAeh611cpCksu3PpHloA
p1854
(dp1855
g3
I1406
ssVAHofX4iEP8vKxJtvaarC0Q
p1856
(dp1857
g3
I545
ssV89fJ3Mox4eANx0aq9JMsbg
p1858
(dp1859
g3
I1688
ssVmzAif6d6CvrOpnJ5n-nEBw
p1860
(dp1861
g3
I558
ssVCoY1DKt13ZZyq8B1TlK0sw
p1862
(dp1863
g3
I2195
ssVUfPzhC27R744fh2GWvdkkQ
p1864
(dp1865
g3
I873
ssVU4vvxA_sY1EDB2JuJjHB8w
p1866
(dp1867
g3
I352
ssVeleS0QegOhi-XT7e65DHVA
p1868
(dp1869
g3
I302
ssVkBlISlM0QgdkS_a15aRMkA
p1870
(dp1871
g3
I2159
ssVP13sK8D1mr4DnM9Fnm4nTA
p1872
(dp1873
g3
I151
ssV90a6z--_CUrl84aCzZyPsg
p1874
(dp1875
g3
I1980
ssViqqNn0htkAXBxqOyTRZYGg
p1876
(dp1877
g3
I662
ssVMmPOU8kbuwkE4NedXe-qZw
p1878
(dp1879
g3
I1173
ssVtSBM_fDAOkW6rYp9NeKZ6Q
p1880
(dp1881
g3
I1373
ssVkqbAR7hVxbENHTNJIkGH2Q
p1882
(dp1883
g3
I138
ssVI83zf35JTmvZDrPKdkcYZg
p1884
(dp1885
g3
I1268
ssV9STS2LaNLkrKq84c7IyAKA
p1886
(dp1887
g3
I448
ssVfCrETXpDvnS7HL_6CJ4yog
p1888
(dp1889
g3
I1722
ssVge1JTvFwVmp7BUmOHP_qsg
p1890
(dp1891
g3
I335
ssVrxQhpWH-wOV7RoT4iMkMQA
p1892
(dp1893
g3
I1016
ssVal01PQM2YCnACWm-SRsKEA
p1894
(dp1895
g3
I1680
ssVNdcI47w2nbfw8CPtP3QPqQ
p1896
(dp1897
g3
I1723
ssVoDxw6N-rQuUdshBj3yTYcw
p1898
(dp1899
g3
I1684
ssVlQaZAlAjQ1PiI_uV5O2vPQ
p1900
(dp1901
g3
I1006
ssVy3d4v0x-vD10hw-O0YKa1Q
p1902
(dp1903
g3
I1414
ssVFzB6qNc9aat-h2hYUcrbEA
p1904
(dp1905
g3
I1603
ssV4hR-tE1PYvp7Go5a8s8pmw
p1906
(dp1907
g3
I1200
ssVLzEX3DYCctzHDc_lWy7BwQ
p1908
(dp1909
g3
I1877
ssVEgusfsNgndly9gGZKXrmsw
p1910
(dp1911
g3
I2234
ssVb_4No81XPBhkT6K1H18pIA
p1912
(dp1913
g3
I1637
ssVoT6XHjvPHmQ0EdQpuOHrPQ
p1914
(dp1915
g3
I904
ssV-A0CPl7ipFe0HNfSGIyrYQ
p1916
(dp1917
g3
I696
ssViEuLOmNVXgwrn1fkqRedsA
p1918
(dp1919
g3
I389
ssV5Pcmp6vX_7XZ5RFtlC5hyA
p1920
(dp1921
g3
I944
ssVlf_dhzlvKQb4f_CVpOhdKA
p1922
(dp1923
g3
I883
ssVKLekdmo4FdNnP0huUhzZNw
p1924
(dp1925
g3
I499
ssV9hRxQvRm_kanUNauoXCSpw
p1926
(dp1927
g3
I2084
ssVczRDJwMKXhrLSt6NqWmFlA
p1928
(dp1929
g3
I768
ssVdpamrzfUzCAIebh6r8IWsg
p1930
(dp1931
g3
I1607
ssV3k7SY2V5MrVwYIsMexTSfA
p1932
(dp1933
g3
I1329
ssVJAzJXjfXDuMpQ87QFfjrZA
p1934
(dp1935
g3
I1251
ssVLda1_6Rkfe4P1J7XibaY4A
p1936
(dp1937
g3
I140
ssVTocDkq1UljoZ9_Q0cR-3eQ
p1938
(dp1939
g3
I285
ssVMFoVryP-K-KqquPgwaxUgg
p1940
(dp1941
g3
I1726
ssV_qDCRA8PTafuoXc0VWyBlw
p1942
(dp1943
g3
I14
ssVAWa7TBTRDBvsdNOS_TEnmg
p1944
(dp1945
g3
I1221
ssVnOA4lSY3D4xsUXJBT4H0pw
p1946
(dp1947
g3
I73
ssVZRQdOIIhzrzE6sc3emgM-Q
p1948
(dp1949
g3
I2280
ssVYBVdmm5zlpLpi2_DiKsd2A
p1950
(dp1951
g3
I2161
ssV9a6ncXGd5fFQjp1AU4ZMZA
p1952
(dp1953
g3
I1447
ssVZVgo1ey76GIiYy8cn4hGqA
p1954
(dp1955
g3
I1715
ssVxNtYQ8K1To2Gqqm_4xcBDg
p1956
(dp1957
g3
I755
ssVFDKDLUNbhnpsRWOHkS1nYQ
p1958
(dp1959
g3
I1108
ssV0vsXoyFeNNRVTNDUqJnfIQ
p1960
(dp1961
g3
I529
ssVjlDJisGSsoJfL9FZbAqH_A
p1962
(dp1963
g3
I1177
ssVOqisxqKDGaZwEvLm1OG4dg
p1964
(dp1965
g3
I688
ssVAIWn658mehwltRRQwe-RHg
p1966
(dp1967
g3
I1894
ssVMD-04cL1uycJkKtJMnnoYg
p1968
(dp1969
g3
I930
ssVyH1daviGmtbuIaBobyYtWg
p1970
(dp1971
g3
I582
ssVeUu8yuHNVwshKdj2yvvbcw
p1972
(dp1973
g3
I1988
ssVCPesvomG6DvIcAGR2tXCrA
p1974
(dp1975
g3
I789
ssV8WdFsaZUlWbtzPU2IE3h7g
p1976
(dp1977
g3
I1287
ssVB-4_1ATtqCuFlKk1c24b2w
p1978
(dp1979
g3
I74
ssVuzTmh1jCveKLvUjcfN-PQA
p1980
(dp1981
g3
I1229
ssVtRBC8zo48KbWIJn_hEG4mA
p1982
(dp1983
g3
I949
ssVzz4iaqRAIT-wju1J8wicgA
p1984
(dp1985
g3
I882
ssV4VeebV2Ep6gGCdLyeIBUTg
p1986
(dp1987
g3
I1937
ssVf01B5tRtqf3k6ak1pPSAWw
p1988
(dp1989
g3
I44
ssVog3-qOKBvWLbm7FowP7WgQ
p1990
(dp1991
g3
I2157
ssVhdK42L495_y7y7Pr9egbKw
p1992
(dp1993
g3
I2255
ssVrJ9Xa_FJawc10Zt2oX_0dA
p1994
(dp1995
g3
I1368
ssVT9wO3ug8vY2vOAUyCueeIw
p1996
(dp1997
g3
I536
ssVH8I48jAArQj5IYYBFPDwIQ
p1998
(dp1999
g3
I133
ssVjfXT_8J_EQnJVa4sJ3z6hg
p2000
(dp2001
g3
I1011
ss.